(dp1
S'files'
p2
(dp3
S'_Users_michaelherman_Desktop_django-tastypie-tutorial_env_lib_python2_7_site-packages_django_core_cache___init__'
p4
(dp5
S'index'
p6
(dp7
S'html_filename'
p8
S'_Users_michaelherman_Desktop_django-tastypie-tutorial_env_lib_python2_7_site-packages_django_core_cache___init__.html'
p9
sS'name'
p10
S'/Users/michaelherman/Desktop/django-tastypie-tutorial/env/lib/python2.7/site-packages/django/core/cache/__init__'
p11
sS'nums'
p12
ccopy_reg
_reconstructor
p13
(ccoverage.results
Numbers
p14
c__builtin__
object
p15
NtRp16
(dp17
S'n_files'
p18
I1
sS'n_branches'
p19
I0
sS'n_statements'
p20
I65
sS'n_excluded'
p21
I0
sS'n_partial_branches'
p22
I0
sS'n_missing'
p23
I32
sS'n_missing_branches'
p24
I0
sbssS'hash'
p25
S'\xcfU\xb7\x08J\x17s}\xb4\x9b\x888\xb0\xcf\xc3\x83'
p26
ssS'_Users_michaelherman_Desktop_django-tastypie-tutorial_env_lib_python2_7_site-packages_django_template_defaulttags'
p27
(dp28
g6
(dp29
S'html_filename'
p30
S'_Users_michaelherman_Desktop_django-tastypie-tutorial_env_lib_python2_7_site-packages_django_template_defaulttags.html'
p31
sS'name'
p32
S'/Users/michaelherman/Desktop/django-tastypie-tutorial/env/lib/python2.7/site-packages/django/template/defaulttags'
p33
sS'nums'
p34
g13
(g14
g15
NtRp35
(dp36
g18
I1
sg19
I0
sg20
I606
sg21
I0
sg22
I0
sg23
I488
sg24
I0
sbssg25
S'BN\x98\xb3\x97Ko\xd6u\x94\xf6h\x04\xe1\xf4\xe1'
p37
ssS'_Users_michaelherman_Desktop_django-tastypie-tutorial_env_lib_python2_7_site-packages_lxml___init__'
p38
(dp39
S'index'
p40
(dp41
S'html_filename'
p42
S'_Users_michaelherman_Desktop_django-tastypie-tutorial_env_lib_python2_7_site-packages_lxml___init__.html'
p43
sS'name'
p44
S'/Users/michaelherman/Desktop/django-tastypie-tutorial/env/lib/python2.7/site-packages/lxml/__init__'
p45
sS'nums'
p46
g13
(g14
g15
NtRp47
(dp48
g18
I1
sg19
I0
sg20
I10
sg21
I0
sg22
I0
sg23
I9
sg24
I0
sbssS'hash'
p49
S'\xb06\xc4\xf1\x1dT}[\xf3\xf0\xa7\xf8*ir\xf7'
p50
ssS'_Users_michaelherman_Desktop_django-tastypie-tutorial_env_lib_python2_7_site-packages_south_management_commands_migrate'
p51
(dp52
g6
(dp53
g8
S'_Users_michaelherman_Desktop_django-tastypie-tutorial_env_lib_python2_7_site-packages_south_management_commands_migrate.html'
p54
sg10
S'/Users/michaelherman/Desktop/django-tastypie-tutorial/env/lib/python2.7/site-packages/south/management/commands/migrate'
p55
sg12
g13
(g14
g15
NtRp56
(dp57
g18
I1
sg19
I0
sg20
I126
sg21
I0
sg22
I0
sg23
I92
sg24
I0
sbssg25
S's]\xb8!C\xb9 \x8b\xe1\xbe\x1c\xd1\xa2\x89wV'
p58
ssS'_Users_michaelherman_Desktop_django-tastypie-tutorial_env_lib_python2_7_site-packages_selenium_webdriver_common_alert'
p59
(dp60
S'index'
p61
(dp62
S'html_filename'
p63
S'_Users_michaelherman_Desktop_django-tastypie-tutorial_env_lib_python2_7_site-packages_selenium_webdriver_common_alert.html'
p64
sS'name'
p65
S'/Users/michaelherman/Desktop/django-tastypie-tutorial/env/lib/python2.7/site-packages/selenium/webdriver/common/alert'
p66
sS'nums'
p67
g13
(g14
g15
NtRp68
(dp69
g18
I1
sg19
I0
sg20
I12
sg21
I0
sg22
I0
sg23
I5
sg24
I0
sbssS'hash'
p70
S'\x0b/\x1c\n\xeb\xf9\xe9\xaf\xbf)xJ\xc0-W\x01'
p71
ssS'_Users_michaelherman_Desktop_django-tastypie-tutorial_env_lib_python2_7_site-packages_django_core_files_uploadedfile'
p72
(dp73
g6
(dp74
g8
S'_Users_michaelherman_Desktop_django-tastypie-tutorial_env_lib_python2_7_site-packages_django_core_files_uploadedfile.html'
p75
sg10
S'/Users/michaelherman/Desktop/django-tastypie-tutorial/env/lib/python2.7/site-packages/django/core/files/uploadedfile'
p76
sg12
g13
(g14
g15
NtRp77
(dp78
g18
I1
sg19
I0
sg20
I60
sg21
I0
sg22
I0
sg23
I32
sg24
I0
sbssg25
S'\xf9\x14\xfc\xaeej\x98\x970T\xbd\x8e\x1a$\xedq'
p79
ssS'_Users_michaelherman_Desktop_django-tastypie-tutorial_env_lib_python2_7_site-packages_south_migration_utils'
p80
(dp81
g6
(dp82
g8
S'_Users_michaelherman_Desktop_django-tastypie-tutorial_env_lib_python2_7_site-packages_south_migration_utils.html'
p83
sg10
S'/Users/michaelherman/Desktop/django-tastypie-tutorial/env/lib/python2.7/site-packages/south/migration/utils'
p84
sg12
g13
(g14
g15
NtRp85
(dp86
g18
I1
sg19
I0
sg20
I61
sg21
I0
sg22
I0
sg23
I38
sg24
I0
sbssg25
S"\xad\xaf\xec\xbdU\xd6\xd0\t\x1b\x1b'\x03\xe3\xfd\x15\x85"
p87
ssS'_Users_michaelherman_Desktop_django-tastypie-tutorial_env_lib_python2_7_site-packages_selenium_webdriver_common_action_chains'
p88
(dp89
g61
(dp90
g63
S'_Users_michaelherman_Desktop_django-tastypie-tutorial_env_lib_python2_7_site-packages_selenium_webdriver_common_action_chains.html'
p91
sg65
S'/Users/michaelherman/Desktop/django-tastypie-tutorial/env/lib/python2.7/site-packages/selenium/webdriver/common/action_chains'
p92
sg67
g13
(g14
g15
NtRp93
(dp94
g18
I1
sg19
I0
sg20
I82
sg21
I0
sg22
I0
sg23
I62
sg24
I0
sbssg70
S'\xe5\x98\x8c\x17\xdc\x9a\xaa\x91\xda-\xd5\xd3\x06\xcbX('
p95
ssS'_Users_michaelherman_Desktop_django-tastypie-tutorial_env_lib_python2_7_site-packages_selenium_common_exceptions'
p96
(dp97
g61
(dp98
S'html_filename'
p99
S'_Users_michaelherman_Desktop_django-tastypie-tutorial_env_lib_python2_7_site-packages_selenium_common_exceptions.html'
p100
sS'name'
p101
S'/Users/michaelherman/Desktop/django-tastypie-tutorial/env/lib/python2.7/site-packages/selenium/common/exceptions'
p102
sS'nums'
p103
g13
(g14
g15
NtRp104
(dp105
g18
I1
sg19
I0
sg20
I57
sg21
I0
sg22
I0
sg23
I3
sg24
I0
sbssg70
S'<\xf2(;rEB\xb6\xb6\x1f\xd6\x12\x8c\x1d\x83\x1e'
p106
ssS'_Users_michaelherman_Desktop_django-tastypie-tutorial_env_lib_python2_7_site-packages_django_db_models_base'
p107
(dp108
g6
(dp109
g30
S'_Users_michaelherman_Desktop_django-tastypie-tutorial_env_lib_python2_7_site-packages_django_db_models_base.html'
p110
sg32
S'/Users/michaelherman/Desktop/django-tastypie-tutorial/env/lib/python2.7/site-packages/django/db/models/base'
p111
sg34
g13
(g14
g15
NtRp112
(dp113
g18
I1
sg19
I0
sg20
I544
sg21
I0
sg22
I0
sg23
I296
sg24
I0
sbssg25
S'\xcap\xf7>\xafy\xd0\x1a\xc1.-6H\xe3\xd1\xdc'
p114
ssS'_Users_michaelherman_Desktop_django-tastypie-tutorial_env_lib_python2_7_site-packages_django_utils_translation___init__'
p115
(dp116
g6
(dp117
g8
S'_Users_michaelherman_Desktop_django-tastypie-tutorial_env_lib_python2_7_site-packages_django_utils_translation___init__.html'
p118
sg10
S'/Users/michaelherman/Desktop/django-tastypie-tutorial/env/lib/python2.7/site-packages/django/utils/translation/__init__'
p119
sg12
g13
(g14
g15
NtRp120
(dp121
g18
I1
sg19
I0
sg20
I78
sg21
I0
sg22
I0
sg23
I25
sg24
I0
sbssg25
S'\xd0\xf5\x84\x0f\nv\xc3\xe0\x02\xe5\x1e\x8cUE\nn'
p122
ssS'_Users_michaelherman_Desktop_django-tastypie-tutorial_env_lib_python2_7_site-packages_django_db_models_deletion'
p123
(dp124
g6
(dp125
g8
S'_Users_michaelherman_Desktop_django-tastypie-tutorial_env_lib_python2_7_site-packages_django_db_models_deletion.html'
p126
sg10
S'/Users/michaelherman/Desktop/django-tastypie-tutorial/env/lib/python2.7/site-packages/django/db/models/deletion'
p127
sg12
g13
(g14
g15
NtRp128
(dp129
g18
I1
sg19
I0
sg20
I173
sg21
I0
sg22
I0
sg23
I142
sg24
I0
sbssg25
S'\x91\x11\xc1<"\xc6\xadr@\x82\xd9\x9eU\xd1%\xba'
p130
ssS'_Users_michaelherman_Desktop_django-tastypie-tutorial_env_lib_python2_7_site-packages_south_migration_migrators'
p131
(dp132
g6
(dp133
g8
S'_Users_michaelherman_Desktop_django-tastypie-tutorial_env_lib_python2_7_site-packages_south_migration_migrators.html'
p134
sg10
S'/Users/michaelherman/Desktop/django-tastypie-tutorial/env/lib/python2.7/site-packages/south/migration/migrators'
p135
sg12
g13
(g14
g15
NtRp136
(dp137
g18
I1
sg19
I0
sg20
I227
sg21
I0
sg22
I0
sg23
I161
sg24
I0
sbssg25
S'_E\x082\x11\xb6\xc8\x8e*\x9d\x87\x12&\xbfZr'
p138
ssS'_Users_michaelherman_Desktop_django-tastypie-tutorial_env_lib_python2_7_site-packages_django_db_backends_signals'
p139
(dp140
g6
(dp141
g8
S'_Users_michaelherman_Desktop_django-tastypie-tutorial_env_lib_python2_7_site-packages_django_db_backends_signals.html'
p142
sg10
S'/Users/michaelherman/Desktop/django-tastypie-tutorial/env/lib/python2.7/site-packages/django/db/backends/signals'
p143
sg12
g13
(g14
g15
NtRp144
(dp145
g18
I1
sg19
I0
sg20
I2
sg21
I0
sg22
I0
sg23
I0
sg24
I0
sbssg25
S'\xac\xe8\xc0\xe9\x8a\xd9d\xcc\x03\xc1\x89\xd4\xde\xa8x<'
p146
ssS'_Users_michaelherman_Desktop_django-tastypie-tutorial_env_lib_python2_7_site-packages_django_http_response'
p147
(dp148
g6
(dp149
g30
S'_Users_michaelherman_Desktop_django-tastypie-tutorial_env_lib_python2_7_site-packages_django_http_response.html'
p150
sg32
S'/Users/michaelherman/Desktop/django-tastypie-tutorial/env/lib/python2.7/site-packages/django/http/response'
p151
sg34
g13
(g14
g15
NtRp152
(dp153
g18
I1
sg19
I0
sg20
I236
sg21
I0
sg22
I0
sg23
I143
sg24
I0
sbssg25
S'{!\xbf\xc4\x1c\xb2cw\x18\x00q\x9b\xe3Sh;'
p154
ssS'_Users_michaelherman_Desktop_django-tastypie-tutorial_env_lib_python2_7_site-packages_django_templatetags___init__'
p155
(dp156
g6
(dp157
g8
S'_Users_michaelherman_Desktop_django-tastypie-tutorial_env_lib_python2_7_site-packages_django_templatetags___init__.html'
p158
sg10
S'/Users/michaelherman/Desktop/django-tastypie-tutorial/env/lib/python2.7/site-packages/django/templatetags/__init__'
p159
sg12
g13
(g14
g15
NtRp160
(dp161
g18
I1
sg19
I0
sg20
I0
sg21
I0
sg22
I0
sg23
I0
sg24
I0
sbssg25
S'\xb0\xc8pN\xaf>\xa0\xbaz\x144\xe0A9\xb8?'
p162
ssS'_Users_michaelherman_Desktop_django-tastypie-tutorial_env_lib_python2_7_site-packages_selenium_webdriver_chrome_service'
p163
(dp164
g61
(dp165
g63
S'_Users_michaelherman_Desktop_django-tastypie-tutorial_env_lib_python2_7_site-packages_selenium_webdriver_chrome_service.html'
p166
sg65
S'/Users/michaelherman/Desktop/django-tastypie-tutorial/env/lib/python2.7/site-packages/selenium/webdriver/chrome/service'
p167
sg67
g13
(g14
g15
NtRp168
(dp169
g18
I1
sg19
I0
sg20
I50
sg21
I0
sg22
I0
sg23
I39
sg24
I0
sbssg70
S'\xf2Fs\x8a\xf8\x8c\x9f\x009\x15\xa8\x8e>x>Y'
p170
ssS'_Users_michaelherman_Desktop_django-tastypie-tutorial_env_lib_python2_7_site-packages_django_http___init__'
p171
(dp172
g6
(dp173
g8
S'_Users_michaelherman_Desktop_django-tastypie-tutorial_env_lib_python2_7_site-packages_django_http___init__.html'
p174
sg10
S'/Users/michaelherman/Desktop/django-tastypie-tutorial/env/lib/python2.7/site-packages/django/http/__init__'
p175
sg12
g13
(g14
g15
NtRp176
(dp177
g18
I1
sg19
I0
sg20
I4
sg21
I0
sg22
I0
sg23
I0
sg24
I0
sbssg25
S'9D\xc4$2\xe1*J\xb6\xd3\x1b\xbe-\x93\x1c%'
p178
ssS'_Users_michaelherman_Desktop_django-tastypie-tutorial_env_lib_python2_7_site-packages_selenium_webdriver_firefox_extension_connection'
p179
(dp180
g61
(dp181
g63
S'_Users_michaelherman_Desktop_django-tastypie-tutorial_env_lib_python2_7_site-packages_selenium_webdriver_firefox_extension_connection.html'
p182
sg65
S'/Users/michaelherman/Desktop/django-tastypie-tutorial/env/lib/python2.7/site-packages/selenium/webdriver/firefox/extension_connection'
p183
sg67
g13
(g14
g15
NtRp184
(dp185
g18
I1
sg19
I0
sg20
I40
sg21
I0
sg22
I0
sg23
I9
sg24
I0
sbssg70
S'\xb4\xcb\xe6r\xe4\xd3\xa8\xd5f\x1e\xc5\xce\xe5\xf1\x01\xe3'
p186
ssS'_Users_michaelherman_Desktop_django-tastypie-tutorial_env_lib_python2_7_site-packages_django___init__'
p187
(dp188
g6
(dp189
g8
S'_Users_michaelherman_Desktop_django-tastypie-tutorial_env_lib_python2_7_site-packages_django___init__.html'
p190
sg10
S'/Users/michaelherman/Desktop/django-tastypie-tutorial/env/lib/python2.7/site-packages/django/__init__'
p191
sg12
g13
(g14
g15
NtRp192
(dp193
g18
I1
sg19
I0
sg20
I4
sg21
I0
sg22
I0
sg23
I0
sg24
I0
sbssg25
S'\xaa\xa7\xe4g\x8e\xb5\xf5\xdd\xd4ZW\x9e\xbc\x1d(R'
p194
ssS'_Users_michaelherman_Desktop_django-tastypie-tutorial_env_lib_python2_7_site-packages_dateutil_parser'
p195
(dp196
S'index'
p197
(dp198
S'html_filename'
p199
S'_Users_michaelherman_Desktop_django-tastypie-tutorial_env_lib_python2_7_site-packages_dateutil_parser.html'
p200
sS'name'
p201
S'/Users/michaelherman/Desktop/django-tastypie-tutorial/env/lib/python2.7/site-packages/dateutil/parser'
p202
sS'nums'
p203
g13
(g14
g15
NtRp204
(dp205
g18
I1
sg19
I0
sg20
I626
sg21
I0
sg22
I0
sg23
I539
sg24
I0
sbssS'hash'
p206
S'\xe7\x8eV\xb7\xd7\x08FC\x96\x9a\x86\xe9\xda\xbb\xc3\x03'
p207
ssS'_Users_michaelherman_Desktop_django-tastypie-tutorial_env_lib_python2_7_site-packages_django_conf_locale_en_formats'
p208
(dp209
g6
(dp210
g8
S'_Users_michaelherman_Desktop_django-tastypie-tutorial_env_lib_python2_7_site-packages_django_conf_locale_en_formats.html'
p211
sg10
S'/Users/michaelherman/Desktop/django-tastypie-tutorial/env/lib/python2.7/site-packages/django/conf/locale/en/formats'
p212
sg12
g13
(g14
g15
NtRp213
(dp214
g18
I1
sg19
I0
sg20
I13
sg21
I0
sg22
I0
sg23
I0
sg24
I0
sbssg25
S'N\x11\xf3\xa6\x0e\xc6\x1f\xdeR\xeaSF\xa5vb\x90'
p215
ssS'_Users_michaelherman_Desktop_django-tastypie-tutorial_env_lib_python2_7_site-packages_django_utils_html_parser'
p216
(dp217
g6
(dp218
g8
S'_Users_michaelherman_Desktop_django-tastypie-tutorial_env_lib_python2_7_site-packages_django_utils_html_parser.html'
p219
sg10
S'/Users/michaelherman/Desktop/django-tastypie-tutorial/env/lib/python2.7/site-packages/django/utils/html_parser'
p220
sg12
g13
(g14
g15
NtRp221
(dp222
g18
I1
sg19
I0
sg20
I82
sg21
I0
sg22
I0
sg23
I74
sg24
I0
sbssg25
S'e\x17l\x17W\x16\xddr\xecYeXj\xc6!\xf4'
p223
ssS'_Users_michaelherman_Desktop_django-tastypie-tutorial_env_lib_python2_7_site-packages_django_core_mail___init__'
p224
(dp225
g6
(dp226
g8
S'_Users_michaelherman_Desktop_django-tastypie-tutorial_env_lib_python2_7_site-packages_django_core_mail___init__.html'
p227
sg10
S'/Users/michaelherman/Desktop/django-tastypie-tutorial/env/lib/python2.7/site-packages/django/core/mail/__init__'
p228
sg12
g13
(g14
g15
NtRp229
(dp230
g18
I1
sg19
I0
sg20
I39
sg21
I0
sg22
I0
sg23
I28
sg24
I0
sbssg25
S'\x05\xc9\xdd\x1e\x0b\xde;\xdd\x8e\xfb\x99-\xc4\x84\xbd\xd8'
p231
ssS'_Users_michaelherman_Desktop_django-tastypie-tutorial_env_lib_python2_7_site-packages_django_db_models_sql___init__'
p232
(dp233
g6
(dp234
g8
S'_Users_michaelherman_Desktop_django-tastypie-tutorial_env_lib_python2_7_site-packages_django_db_models_sql___init__.html'
p235
sg10
S'/Users/michaelherman/Desktop/django-tastypie-tutorial/env/lib/python2.7/site-packages/django/db/models/sql/__init__'
p236
sg12
g13
(g14
g15
NtRp237
(dp238
g18
I1
sg19
I0
sg20
I6
sg21
I0
sg22
I0
sg23
I0
sg24
I0
sbssg25
S'\xea\xf8\xff\x94\xe8\x06\xd7@N\x8e\xb9\x9b)&=f'
p239
ssS'_Users_michaelherman_Desktop_django-tastypie-tutorial_env_lib_python2_7_site-packages_django_contrib_contenttypes_models'
p240
(dp241
g6
(dp242
g8
S'_Users_michaelherman_Desktop_django-tastypie-tutorial_env_lib_python2_7_site-packages_django_contrib_contenttypes_models.html'
p243
sg10
S'/Users/michaelherman/Desktop/django-tastypie-tutorial/env/lib/python2.7/site-packages/django/contrib/contenttypes/models'
p244
sg12
g13
(g14
g15
NtRp245
(dp246
g18
I1
sg19
I0
sg20
I98
sg21
I0
sg22
I0
sg23
I48
sg24
I0
sbssg25
S'\x03\x16\x93\xb8\x04M$\xc4D$\x9a\x14q\xf2I3'
p247
ssS'_Users_michaelherman_Desktop_django-tastypie-tutorial_env_lib_python2_7_site-packages_django_core_management___init__'
p248
(dp249
g6
(dp250
g8
S'_Users_michaelherman_Desktop_django-tastypie-tutorial_env_lib_python2_7_site-packages_django_core_management___init__.html'
p251
sg10
S'/Users/michaelherman/Desktop/django-tastypie-tutorial/env/lib/python2.7/site-packages/django/core/management/__init__'
p252
sg12
g13
(g14
g15
NtRp253
(dp254
g18
I1
sg19
I0
sg20
I210
sg21
I0
sg22
I0
sg23
I99
sg24
I0
sbssg25
S'|B\xb5\x1d\xdb\xf5\xd9\xd0\xad)\xea\x9a\tvz\xff'
p255
ssS'_Users_michaelherman_Desktop_django-tastypie-tutorial_env_lib_python2_7_site-packages_django_utils_timesince'
p256
(dp257
g6
(dp258
g8
S'_Users_michaelherman_Desktop_django-tastypie-tutorial_env_lib_python2_7_site-packages_django_utils_timesince.html'
p259
sg10
S'/Users/michaelherman/Desktop/django-tastypie-tutorial/env/lib/python2.7/site-packages/django/utils/timesince'
p260
sg12
g13
(g14
g15
NtRp261
(dp262
g18
I1
sg19
I0
sg20
I29
sg21
I0
sg22
I0
sg23
I23
sg24
I0
sbssg25
S'\xc3\x18\xc6\x13\x8c$3\x1d\xd7K\t\xef\x8cD\xac\xfb'
p263
ssS'_Users_michaelherman_Desktop_django-tastypie-tutorial_env_lib_python2_7_site-packages_django_db_models_sql_where'
p264
(dp265
g6
(dp266
g8
S'_Users_michaelherman_Desktop_django-tastypie-tutorial_env_lib_python2_7_site-packages_django_db_models_sql_where.html'
p267
sg10
S'/Users/michaelherman/Desktop/django-tastypie-tutorial/env/lib/python2.7/site-packages/django/db/models/sql/where'
p268
sg12
g13
(g14
g15
NtRp269
(dp270
g18
I1
sg19
I0
sg20
I201
sg21
I0
sg22
I0
sg23
I82
sg24
I0
sbssg25
S'TY\xe0a4\xe8\xc7A\xf5?\xb7\xb7\xcd\xa6\xbc\xed'
p271
ssS'_Users_michaelherman_Desktop_django-tastypie-tutorial_env_lib_python2_7_site-packages_django_utils_datetime_safe'
p272
(dp273
g6
(dp274
g8
S'_Users_michaelherman_Desktop_django-tastypie-tutorial_env_lib_python2_7_site-packages_django_utils_datetime_safe.html'
p275
sg10
S'/Users/michaelherman/Desktop/django-tastypie-tutorial/env/lib/python2.7/site-packages/django/utils/datetime_safe'
p276
sg12
g13
(g14
g15
NtRp277
(dp278
g18
I1
sg19
I0
sg20
I56
sg21
I0
sg22
I0
sg23
I42
sg24
I0
sbssg25
S'\xcf\x16v\x83I\x1c\x906G\x91=\xec\x94\xfdf\xbe'
p279
ssS'whatever_admin'
p280
(dp281
g197
(dp282
g199
S'whatever_admin.html'
p283
sg201
S'whatever/admin'
p284
sg203
g13
(g14
g15
NtRp285
(dp286
g18
I1
sg19
I0
sg20
I3
sg21
I0
sg22
I0
sg23
I0
sg24
I0
sbssg206
S'\xa7\xd7,\xa5\x82\xf8\xf0q\xe3v\xc3\xea`\x126N'
p287
ssS'_Users_michaelherman_Desktop_django-tastypie-tutorial_env_lib_python2_7_site-packages_tastypie___init__'
p288
(dp289
g197
(dp290
g199
S'_Users_michaelherman_Desktop_django-tastypie-tutorial_env_lib_python2_7_site-packages_tastypie___init__.html'
p291
sg201
S'/Users/michaelherman/Desktop/django-tastypie-tutorial/env/lib/python2.7/site-packages/tastypie/__init__'
p292
sg203
g13
(g14
g15
NtRp293
(dp294
g18
I1
sg19
I0
sg20
I2
sg21
I0
sg22
I0
sg23
I0
sg24
I0
sbssg206
S'\xf9TU\xc5\xdfW\x17\xe0\x0b"S\xfd\x8f##\xc9'
p295
ssS'_Users_michaelherman_Desktop_django-tastypie-tutorial_env_lib_python2_7_site-packages_selenium_webdriver_remote_webdriver'
p296
(dp297
g61
(dp298
g99
S'_Users_michaelherman_Desktop_django-tastypie-tutorial_env_lib_python2_7_site-packages_selenium_webdriver_remote_webdriver.html'
p299
sg101
S'/Users/michaelherman/Desktop/django-tastypie-tutorial/env/lib/python2.7/site-packages/selenium/webdriver/remote/webdriver'
p300
sg103
g13
(g14
g15
NtRp301
(dp302
g18
I1
sg19
I0
sg20
I229
sg21
I0
sg22
I0
sg23
I109
sg24
I0
sbssg70
S'\x19\xc4\xc0\x95U\xf5 \xbe\x90D)v\x8c\x84bb'
p303
ssS'_Users_michaelherman_Desktop_django-tastypie-tutorial_env_lib_python2_7_site-packages_django_utils_regex_helper'
p304
(dp305
g6
(dp306
g30
S'_Users_michaelherman_Desktop_django-tastypie-tutorial_env_lib_python2_7_site-packages_django_utils_regex_helper.html'
p307
sg32
S'/Users/michaelherman/Desktop/django-tastypie-tutorial/env/lib/python2.7/site-packages/django/utils/regex_helper'
p308
sg34
g13
(g14
g15
NtRp309
(dp310
g18
I1
sg19
I0
sg20
I188
sg21
I0
sg22
I0
sg23
I175
sg24
I0
sbssg25
S'\xab\xc0\xa2\xe6\xd9PI*\xba_T\xc0qG\x0e\x97'
p311
ssS'_Users_michaelherman_Desktop_django-tastypie-tutorial_env_lib_python2_7_site-packages_django_contrib_sites_admin'
p312
(dp313
g197
(dp314
g199
S'_Users_michaelherman_Desktop_django-tastypie-tutorial_env_lib_python2_7_site-packages_django_contrib_sites_admin.html'
p315
sg201
S'/Users/michaelherman/Desktop/django-tastypie-tutorial/env/lib/python2.7/site-packages/django/contrib/sites/admin'
p316
sg203
g13
(g14
g15
NtRp317
(dp318
g18
I1
sg19
I0
sg20
I6
sg21
I0
sg22
I0
sg23
I0
sg24
I0
sbssg206
S'\x88\xea\x7fX\n\x9c2tI\xac\xb4\xb2\xbd\x0e+\x10'
p319
ssS'_Users_michaelherman_Desktop_django-tastypie-tutorial_env_lib_python2_7_site-packages_django_contrib_messages_models'
p320
(dp321
g6
(dp322
g8
S'_Users_michaelherman_Desktop_django-tastypie-tutorial_env_lib_python2_7_site-packages_django_contrib_messages_models.html'
p323
sg10
S'/Users/michaelherman/Desktop/django-tastypie-tutorial/env/lib/python2.7/site-packages/django/contrib/messages/models'
p324
sg12
g13
(g14
g15
NtRp325
(dp326
g18
I1
sg19
I0
sg20
I0
sg21
I0
sg22
I0
sg23
I0
sg24
I0
sbssg25
S'}\xf8)\x98N\x1e\xef\xd8Ky\x9f\x03d\x14L\xac'
p327
ssS'_Users_michaelherman_Desktop_django-tastypie-tutorial_env_lib_python2_7_site-packages_django_core_cache_backends_locmem'
p328
(dp329
g6
(dp330
g8
S'_Users_michaelherman_Desktop_django-tastypie-tutorial_env_lib_python2_7_site-packages_django_core_cache_backends_locmem.html'
p331
sg10
S'/Users/michaelherman/Desktop/django-tastypie-tutorial/env/lib/python2.7/site-packages/django/core/cache/backends/locmem'
p332
sg12
g13
(g14
g15
NtRp333
(dp334
g18
I1
sg19
I0
sg20
I119
sg21
I0
sg22
I0
sg23
I93
sg24
I0
sbssg25
S'\x9e5s\xf8EUb\xe7\xea$L25\x1c\xbc\xfc'
p335
ssS'_Users_michaelherman_Desktop_django-tastypie-tutorial_env_lib_python2_7_site-packages_django_db_models_sql_constants'
p336
(dp337
g6
(dp338
g8
S'_Users_michaelherman_Desktop_django-tastypie-tutorial_env_lib_python2_7_site-packages_django_db_models_sql_constants.html'
p339
sg10
S'/Users/michaelherman/Desktop/django-tastypie-tutorial/env/lib/python2.7/site-packages/django/db/models/sql/constants'
p340
sg12
g13
(g14
g15
NtRp341
(dp342
g18
I1
sg19
I0
sg20
I9
sg21
I0
sg22
I0
sg23
I0
sg24
I0
sbssg25
S']V9\xa6\xadN\xb7\x17\x9du(\xa5-\x93\xba\xc0'
p343
ssS'_Users_michaelherman_Desktop_django-tastypie-tutorial_env_lib_python2_7_site-packages_django_contrib_admin___init__'
p344
(dp345
g6
(dp346
g30
S'_Users_michaelherman_Desktop_django-tastypie-tutorial_env_lib_python2_7_site-packages_django_contrib_admin___init__.html'
p347
sg32
S'/Users/michaelherman/Desktop/django-tastypie-tutorial/env/lib/python2.7/site-packages/django/contrib/admin/__init__'
p348
sg34
g13
(g14
g15
NtRp349
(dp350
g18
I1
sg19
I0
sg20
I19
sg21
I0
sg22
I0
sg23
I13
sg24
I0
sbssg25
S'yXLFz\xa7\xfe#\x11\xea+\xc9\x1dR"\xfc'
p351
ssS'_Users_michaelherman_Desktop_django-tastypie-tutorial_env_lib_python2_7_site-packages_django_contrib_contenttypes_management'
p352
(dp353
g6
(dp354
g8
S'_Users_michaelherman_Desktop_django-tastypie-tutorial_env_lib_python2_7_site-packages_django_contrib_contenttypes_management.html'
p355
sg10
S'/Users/michaelherman/Desktop/django-tastypie-tutorial/env/lib/python2.7/site-packages/django/contrib/contenttypes/management'
p356
sg12
g13
(g14
g15
NtRp357
(dp358
g18
I1
sg19
I0
sg20
I40
sg21
I0
sg22
I0
sg23
I17
sg24
I0
sbssg25
S'\xe071\x8b\x81A=\xee\xc7+(G\xaa\x12\xb3('
p359
ssS'_Users_michaelherman_Desktop_django-tastypie-tutorial_env_lib_python2_7_site-packages_django_utils_baseconv'
p360
(dp361
g6
(dp362
g8
S'_Users_michaelherman_Desktop_django-tastypie-tutorial_env_lib_python2_7_site-packages_django_utils_baseconv.html'
p363
sg10
S'/Users/michaelherman/Desktop/django-tastypie-tutorial/env/lib/python2.7/site-packages/django/utils/baseconv'
p364
sg12
g13
(g14
g15
NtRp365
(dp366
g18
I1
sg19
I0
sg20
I48
sg21
I0
sg22
I0
sg23
I25
sg24
I0
sbssg25
S'\xb2\x0b\x94|\xcd\x96\xf2\xa9r)h\x95\xb7\x97B\xe5'
p367
ssS'_Users_michaelherman_Desktop_django-tastypie-tutorial_env_lib_python2_7_site-packages_django_test_client'
p368
(dp369
g6
(dp370
g30
S'_Users_michaelherman_Desktop_django-tastypie-tutorial_env_lib_python2_7_site-packages_django_test_client.html'
p371
sg32
S'/Users/michaelherman/Desktop/django-tastypie-tutorial/env/lib/python2.7/site-packages/django/test/client'
p372
sg34
g13
(g14
g15
NtRp373
(dp374
g18
I1
sg19
I0
sg20
I276
sg21
I0
sg22
I0
sg23
I196
sg24
I0
sbssg25
S'\n:\xbcl\x91\x8d\xfe\x01\x93\x1a,C\x1do\x9a\x0e'
p375
ssS'_Users_michaelherman_Desktop_django-tastypie-tutorial_env_lib_python2_7_site-packages_django_core_management_color'
p376
(dp377
g6
(dp378
g8
S'_Users_michaelherman_Desktop_django-tastypie-tutorial_env_lib_python2_7_site-packages_django_core_management_color.html'
p379
sg10
S'/Users/michaelherman/Desktop/django-tastypie-tutorial/env/lib/python2.7/site-packages/django/core/management/color'
p380
sg12
g13
(g14
g15
NtRp381
(dp382
g18
I1
sg19
I0
sg20
I28
sg21
I0
sg22
I0
sg23
I3
sg24
I0
sbssg25
S'\x1f\x18m\xdf\x9b&\x90\xbe\xf5\x15C\x10\x8e\x16\xcd\xc4'
p383
ssS'_Users_michaelherman_Desktop_django-tastypie-tutorial_env_lib_python2_7_site-packages_django_contrib_messages_storage_base'
p384
(dp385
g197
(dp386
g199
S'_Users_michaelherman_Desktop_django-tastypie-tutorial_env_lib_python2_7_site-packages_django_contrib_messages_storage_base.html'
p387
sg201
S'/Users/michaelherman/Desktop/django-tastypie-tutorial/env/lib/python2.7/site-packages/django/contrib/messages/storage/base'
p388
sg203
g13
(g14
g15
NtRp389
(dp390
g18
I1
sg19
I0
sg20
I83
sg21
I0
sg22
I0
sg23
I47
sg24
I0
sbssg206
S'\xf4\xb0\x94\xa4P\xc3\xfa\xd7\xe3#`\xf7\x17G\x06p'
p391
ssS'_Users_michaelherman_Desktop_django-tastypie-tutorial_env_lib_python2_7_site-packages_django_core___init__'
p392
(dp393
g6
(dp394
g8
S'_Users_michaelherman_Desktop_django-tastypie-tutorial_env_lib_python2_7_site-packages_django_core___init__.html'
p395
sg10
S'/Users/michaelherman/Desktop/django-tastypie-tutorial/env/lib/python2.7/site-packages/django/core/__init__'
p396
sg12
g13
(g14
g15
NtRp397
(dp398
g18
I1
sg19
I0
sg20
I0
sg21
I0
sg22
I0
sg23
I0
sg24
I0
sbssg25
S'\xb0\xc8pN\xaf>\xa0\xbaz\x144\xe0A9\xb8?'
p399
ssS'_Users_michaelherman_Desktop_django-tastypie-tutorial_env_lib_python2_7_site-packages_django_utils_http'
p400
(dp401
g6
(dp402
g30
S'_Users_michaelherman_Desktop_django-tastypie-tutorial_env_lib_python2_7_site-packages_django_utils_http.html'
p403
sg32
S'/Users/michaelherman/Desktop/django-tastypie-tutorial/env/lib/python2.7/site-packages/django/utils/http'
p404
sg34
g13
(g14
g15
NtRp405
(dp406
g18
I1
sg19
I0
sg20
I122
sg21
I0
sg22
I0
sg23
I76
sg24
I0
sbssg25
S'W,\\f]a\xc0\xd5*\xd6\xfe\x1fqI5\xe4'
p407
ssS'_Users_michaelherman_Desktop_django-tastypie-tutorial_env_lib_python2_7_site-packages_django_db_models_sql_query'
p408
(dp409
g6
(dp410
g30
S'_Users_michaelherman_Desktop_django-tastypie-tutorial_env_lib_python2_7_site-packages_django_db_models_sql_query.html'
p411
sg32
S'/Users/michaelherman/Desktop/django-tastypie-tutorial/env/lib/python2.7/site-packages/django/db/models/sql/query'
p412
sg34
g13
(g14
g15
NtRp413
(dp414
g18
I1
sg19
I0
sg20
I1044
sg21
I0
sg22
I0
sg23
I576
sg24
I0
sbssg25
S'\xcd\x12\x17\xf6,\xb6\x859;\x83\xed{KT\xfb\xe2'
p415
ssS'_Users_michaelherman_Desktop_django-tastypie-tutorial_env_lib_python2_7_site-packages_django_db_backends_util'
p416
(dp417
g6
(dp418
S'html_filename'
p419
S'_Users_michaelherman_Desktop_django-tastypie-tutorial_env_lib_python2_7_site-packages_django_db_backends_util.html'
p420
sS'name'
p421
S'/Users/michaelherman/Desktop/django-tastypie-tutorial/env/lib/python2.7/site-packages/django/db/backends/util'
p422
sS'nums'
p423
g13
(g14
g15
NtRp424
(dp425
g18
I1
sg19
I0
sg20
I94
sg21
I0
sg22
I0
sg23
I60
sg24
I0
sbssg25
S'\xd5\xdd\xd2\x1e3\x96\x0e\xf7\x03\xe1r\xe1\x7f\xb0Y\x92'
p426
ssS'_Users_michaelherman_Desktop_django-tastypie-tutorial_env_lib_python2_7_site-packages_selenium_webdriver_chrome_options'
p427
(dp428
g61
(dp429
g63
S'_Users_michaelherman_Desktop_django-tastypie-tutorial_env_lib_python2_7_site-packages_selenium_webdriver_chrome_options.html'
p430
sg65
S'/Users/michaelherman/Desktop/django-tastypie-tutorial/env/lib/python2.7/site-packages/selenium/webdriver/chrome/options'
p431
sg67
g13
(g14
g15
NtRp432
(dp433
g18
I1
sg19
I0
sg20
I45
sg21
I0
sg22
I0
sg23
I31
sg24
I0
sbssg70
S'g9\x0c\x1e\x95\x13~\xd8:cjB0\xdd\xc5\x8b'
p434
ssS'manage'
p435
(dp436
g6
(dp437
g8
S'manage.html'
p438
sg10
g435
sg12
g13
(g14
g15
NtRp439
(dp440
g18
I1
sg19
I0
sg20
I6
sg21
I0
sg22
I0
sg23
I0
sg24
I0
sbssg25
S'q^e<\xf3j\xac\xab\x10\xd1zg/\xf2\xfe\x11'
p441
ssS'_Users_michaelherman_Desktop_django-tastypie-tutorial_env_lib_python2_7_site-packages_django_contrib_auth_admin'
p442
(dp443
g197
(dp444
g199
S'_Users_michaelherman_Desktop_django-tastypie-tutorial_env_lib_python2_7_site-packages_django_contrib_auth_admin.html'
p445
sg201
S'/Users/michaelherman/Desktop/django-tastypie-tutorial/env/lib/python2.7/site-packages/django/contrib/auth/admin'
p446
sg203
g13
(g14
g15
NtRp447
(dp448
g18
I1
sg19
I0
sg20
I88
sg21
I0
sg22
I0
sg23
I40
sg24
I0
sbssg206
S'\xe2hM\xf5\xf4\xa7\x95\xd8^\xaf\xae\x8e5Zu\xa9'
p449
ssS'_Users_michaelherman_Desktop_django-tastypie-tutorial_env_lib_python2_7_site-packages_django_db_backends_sqlite3_introspection'
p450
(dp451
g6
(dp452
g8
S'_Users_michaelherman_Desktop_django-tastypie-tutorial_env_lib_python2_7_site-packages_django_db_backends_sqlite3_introspection.html'
p453
sg10
S'/Users/michaelherman/Desktop/django-tastypie-tutorial/env/lib/python2.7/site-packages/django/db/backends/sqlite3/introspection'
p454
sg12
g13
(g14
g15
NtRp455
(dp456
g18
I1
sg19
I0
sg20
I92
sg21
I0
sg22
I0
sg23
I74
sg24
I0
sbssg25
S'\xfaEb\xe4\x04\x91\x13\x9e\x94\xcd\x99\xef\xd7\xdc\xbdr'
p457
ssS'_Users_michaelherman_Desktop_django-tastypie-tutorial_env_lib_python2_7_site-packages_django_core_exceptions'
p458
(dp459
g6
(dp460
g30
S'_Users_michaelherman_Desktop_django-tastypie-tutorial_env_lib_python2_7_site-packages_django_core_exceptions.html'
p461
sg32
S'/Users/michaelherman/Desktop/django-tastypie-tutorial/env/lib/python2.7/site-packages/django/core/exceptions'
p462
sg34
g13
(g14
g15
NtRp463
(dp464
g18
I1
sg19
I0
sg20
I49
sg21
I0
sg22
I0
sg23
I24
sg24
I0
sbssg25
S'VL\xfcg\xd3\x15\xd4$\x05\x8cM\x0f\x9b\x9eHV'
p465
ssS'_Users_michaelherman_Desktop_django-tastypie-tutorial_env_lib_python2_7_site-packages_django_db_models_sql_aggregates'
p466
(dp467
g6
(dp468
g30
S'_Users_michaelherman_Desktop_django-tastypie-tutorial_env_lib_python2_7_site-packages_django_db_models_sql_aggregates.html'
p469
sg32
S'/Users/michaelherman/Desktop/django-tastypie-tutorial/env/lib/python2.7/site-packages/django/db/models/sql/aggregates'
p470
sg34
g13
(g14
g15
NtRp471
(dp472
g18
I1
sg19
I0
sg20
I57
sg21
I0
sg22
I0
sg23
I27
sg24
I0
sbssg25
S'"\xd6\xd4\x0f\xa9\xc7/\xabr\x93@\x0b\x90p\xca\xdf'
p473
ssS'_Users_michaelherman_Desktop_django-tastypie-tutorial_env_lib_python2_7_site-packages_django_db_models_signals'
p474
(dp475
g6
(dp476
g8
S'_Users_michaelherman_Desktop_django-tastypie-tutorial_env_lib_python2_7_site-packages_django_db_models_signals.html'
p477
sg10
S'/Users/michaelherman/Desktop/django-tastypie-tutorial/env/lib/python2.7/site-packages/django/db/models/signals'
p478
sg12
g13
(g14
g15
NtRp479
(dp480
g18
I1
sg19
I0
sg20
I10
sg21
I0
sg22
I0
sg23
I0
sg24
I0
sbssg25
S'\x18B\xc9\xeaVX\xccj\xc2)\xbe\xfb\xee\xf2\x95\x95'
p481
ssS'_Users_michaelherman_Desktop_django-tastypie-tutorial_env_lib_python2_7_site-packages_django_contrib_auth_tokens'
p482
(dp483
g6
(dp484
g8
S'_Users_michaelherman_Desktop_django-tastypie-tutorial_env_lib_python2_7_site-packages_django_contrib_auth_tokens.html'
p485
sg10
S'/Users/michaelherman/Desktop/django-tastypie-tutorial/env/lib/python2.7/site-packages/django/contrib/auth/tokens'
p486
sg12
g13
(g14
g15
NtRp487
(dp488
g18
I1
sg19
I0
sg20
I34
sg21
I0
sg22
I0
sg23
I22
sg24
I0
sbssg25
S'\xd1\xd4\x9e\xff2}]\xe5\x00\xf9\xfe\x868\xa6\x92+'
p489
ssS'_Users_michaelherman_Desktop_django-tastypie-tutorial_env_lib_python2_7_site-packages_django_utils_text'
p490
(dp491
g6
(dp492
g30
S'_Users_michaelherman_Desktop_django-tastypie-tutorial_env_lib_python2_7_site-packages_django_utils_text.html'
p493
sg32
S'/Users/michaelherman/Desktop/django-tastypie-tutorial/env/lib/python2.7/site-packages/django/utils/text'
p494
sg34
g13
(g14
g15
NtRp495
(dp496
g18
I1
sg19
I0
sg20
I239
sg21
I0
sg22
I0
sg23
I174
sg24
I0
sbssg25
S"\x83|w`\xdb\x0ch\xc3\x0c'=8\xca+\xads"
p497
ssS'whatever_models'
p498
(dp499
g6
(dp500
g30
S'whatever_models.html'
p501
sg32
S'whatever/models'
p502
sg34
g13
(g14
g15
NtRp503
(dp504
g18
I1
sg19
I0
sg20
I7
sg21
I0
sg22
I0
sg23
I1
sg24
I0
sbssg25
S'\xb1\x12>\x9d\xbb\xf6\xc0\x17\x0eK\x8b\xe8\xb2\x9c\x19\x14'
p505
ssS'_Users_michaelherman_Desktop_django-tastypie-tutorial_env_lib_python2_7_site-packages_tastypie_validation'
p506
(dp507
g197
(dp508
g199
S'_Users_michaelherman_Desktop_django-tastypie-tutorial_env_lib_python2_7_site-packages_tastypie_validation.html'
p509
sg201
S'/Users/michaelherman/Desktop/django-tastypie-tutorial/env/lib/python2.7/site-packages/tastypie/validation'
p510
sg203
g13
(g14
g15
NtRp511
(dp512
g18
I1
sg19
I0
sg20
I37
sg21
I0
sg22
I0
sg23
I24
sg24
I0
sbssg206
S'\xf6\xaa\xfd\xc03\xbf@\xb2\x91\xa5DR\xf8\xe9\x9a\x0b'
p513
ssS'_Users_michaelherman_Desktop_django-tastypie-tutorial_env_lib_python2_7_site-packages_selenium_webdriver_common_html5___init__'
p514
(dp515
g61
(dp516
g63
S'_Users_michaelherman_Desktop_django-tastypie-tutorial_env_lib_python2_7_site-packages_selenium_webdriver_common_html5___init__.html'
p517
sg65
S'/Users/michaelherman/Desktop/django-tastypie-tutorial/env/lib/python2.7/site-packages/selenium/webdriver/common/html5/__init__'
p518
sg67
g13
(g14
g15
NtRp519
(dp520
g18
I1
sg19
I0
sg20
I0
sg21
I0
sg22
I0
sg23
I0
sg24
I0
sbssg70
S'\xb0\xc8pN\xaf>\xa0\xbaz\x144\xe0A9\xb8?'
p521
ssS'whatever_forms'
p522
(dp523
g197
(dp524
g199
S'whatever_forms.html'
p525
sg201
S'whatever/forms'
p526
sg203
g13
(g14
g15
NtRp527
(dp528
g18
I1
sg19
I0
sg20
I6
sg21
I0
sg22
I0
sg23
I0
sg24
I0
sbssg206
S'|X}\x9d4\xc7\x877\xb3u8\x8d\x1a\x98C='
p529
ssS'_Users_michaelherman_Desktop_django-tastypie-tutorial_env_lib_python2_7_site-packages_django_http_cookie'
p530
(dp531
g6
(dp532
g30
S'_Users_michaelherman_Desktop_django-tastypie-tutorial_env_lib_python2_7_site-packages_django_http_cookie.html'
p533
sg32
S'/Users/michaelherman/Desktop/django-tastypie-tutorial/env/lib/python2.7/site-packages/django/http/cookie'
p534
sg34
g13
(g14
g15
NtRp535
(dp536
g18
I1
sg19
I0
sg20
I53
sg21
I0
sg22
I0
sg23
I35
sg24
I0
sbssg25
S"\x88\x98\xbeIS\x96'\x00U\xab\x91\xa6\xad\x18X\xe8"
p537
ssS'_Users_michaelherman_Desktop_django-tastypie-tutorial_env_lib_python2_7_site-packages_selenium_webdriver_remote___init__'
p538
(dp539
g61
(dp540
g63
S'_Users_michaelherman_Desktop_django-tastypie-tutorial_env_lib_python2_7_site-packages_selenium_webdriver_remote___init__.html'
p541
sg65
S'/Users/michaelherman/Desktop/django-tastypie-tutorial/env/lib/python2.7/site-packages/selenium/webdriver/remote/__init__'
p542
sg67
g13
(g14
g15
NtRp543
(dp544
g18
I1
sg19
I0
sg20
I0
sg21
I0
sg22
I0
sg23
I0
sg24
I0
sbssg70
S'W\xed\xba.gR]] \xb4\x9c\x7f\xd5b\xe9\x83'
p545
ssS'_Users_michaelherman_Desktop_django-tastypie-tutorial_env_lib_python2_7_site-packages_django_core_signals'
p546
(dp547
g6
(dp548
g8
S'_Users_michaelherman_Desktop_django-tastypie-tutorial_env_lib_python2_7_site-packages_django_core_signals.html'
p549
sg10
S'/Users/michaelherman/Desktop/django-tastypie-tutorial/env/lib/python2.7/site-packages/django/core/signals'
p550
sg12
g13
(g14
g15
NtRp551
(dp552
g18
I1
sg19
I0
sg20
I4
sg21
I0
sg22
I0
sg23
I0
sg24
I0
sbssg25
S'\xa8\x92\x82\x13=\x82/\x06\xba\xb2\xa6\xad\xc4o\x81\xc2'
p553
ssS'_Users_michaelherman_Desktop_django-tastypie-tutorial_env_lib_python2_7_site-packages_selenium_webdriver_phantomjs_webdriver'
p554
(dp555
g61
(dp556
g63
S'_Users_michaelherman_Desktop_django-tastypie-tutorial_env_lib_python2_7_site-packages_selenium_webdriver_phantomjs_webdriver.html'
p557
sg65
S'/Users/michaelherman/Desktop/django-tastypie-tutorial/env/lib/python2.7/site-packages/selenium/webdriver/phantomjs/webdriver'
p558
sg67
g13
(g14
g15
NtRp559
(dp560
g18
I1
sg19
I0
sg20
I27
sg21
I0
sg22
I0
sg23
I17
sg24
I0
sbssg70
S'\x90\xb6)\xcdtVp\x0b\x1ab\xc2v\xa7w\xe7\xc6'
p561
ssS'_Users_michaelherman_Desktop_django-tastypie-tutorial_env_lib_python2_7_site-packages_django_views_static'
p562
(dp563
g6
(dp564
g8
S'_Users_michaelherman_Desktop_django-tastypie-tutorial_env_lib_python2_7_site-packages_django_views_static.html'
p565
sg10
S'/Users/michaelherman/Desktop/django-tastypie-tutorial/env/lib/python2.7/site-packages/django/views/static'
p566
sg12
g13
(g14
g15
NtRp567
(dp568
g18
I1
sg19
I0
sg20
I76
sg21
I0
sg22
I0
sg23
I57
sg24
I0
sbssg25
S'\xd2\xfe\xdd\xc7\xb1\xa9"\x8e\xe1K~\xff\xb3g\xea\xd1'
p569
ssS'_Users_michaelherman_Desktop_django-tastypie-tutorial_env_lib_python2_7_site-packages_selenium_common___init__'
p570
(dp571
g61
(dp572
g63
S'_Users_michaelherman_Desktop_django-tastypie-tutorial_env_lib_python2_7_site-packages_selenium_common___init__.html'
p573
sg65
S'/Users/michaelherman/Desktop/django-tastypie-tutorial/env/lib/python2.7/site-packages/selenium/common/__init__'
p574
sg67
g13
(g14
g15
NtRp575
(dp576
g18
I1
sg19
I0
sg20
I1
sg21
I0
sg22
I0
sg23
I0
sg24
I0
sbssg70
S"\xf3S\xad+\x00/r=e\xf4\xc6\xd9'`\x8fT"
p577
ssS'_Users_michaelherman_Desktop_django-tastypie-tutorial_env_lib_python2_7_site-packages_south_db_generic'
p578
(dp579
g6
(dp580
g8
S'_Users_michaelherman_Desktop_django-tastypie-tutorial_env_lib_python2_7_site-packages_south_db_generic.html'
p581
sg10
S'/Users/michaelherman/Desktop/django-tastypie-tutorial/env/lib/python2.7/site-packages/south/db/generic'
p582
sg12
g13
(g14
g15
NtRp583
(dp584
g18
I1
sg19
I0
sg20
I584
sg21
I0
sg22
I0
sg23
I448
sg24
I0
sbssg25
S'\xd6\xde\xcd\x997\x0c \xe4\xd3\x91>\xc9\xa5\x97`\xdb'
p585
ssS'_Users_michaelherman_Desktop_django-tastypie-tutorial_env_lib_python2_7_site-packages_django_template_defaultfilters'
p586
(dp587
g6
(dp588
g8
S'_Users_michaelherman_Desktop_django-tastypie-tutorial_env_lib_python2_7_site-packages_django_template_defaultfilters.html'
p589
sg10
S'/Users/michaelherman/Desktop/django-tastypie-tutorial/env/lib/python2.7/site-packages/django/template/defaultfilters'
p590
sg12
g13
(g14
g15
NtRp591
(dp592
g18
I1
sg19
I0
sg20
I458
sg21
I0
sg22
I0
sg23
I325
sg24
I0
sbssg25
S'\xab\xd6\xa2\x95Sa\x85\xe4\x8adp\xd1\x1eu\xcaB'
p593
ssS'_Users_michaelherman_Desktop_django-tastypie-tutorial_env_lib_python2_7_site-packages_django_conf_locale___init__'
p594
(dp595
g6
(dp596
g8
S'_Users_michaelherman_Desktop_django-tastypie-tutorial_env_lib_python2_7_site-packages_django_conf_locale___init__.html'
p597
sg10
S'/Users/michaelherman/Desktop/django-tastypie-tutorial/env/lib/python2.7/site-packages/django/conf/locale/__init__'
p598
sg12
g13
(g14
g15
NtRp599
(dp600
g18
I1
sg19
I0
sg20
I2
sg21
I0
sg22
I0
sg23
I0
sg24
I0
sbssg25
S'\xae\x8bs5R\x03qS)\xeb\xee\x03\x93\xa1&<'
p601
ssS'_Users_michaelherman_Desktop_django-tastypie-tutorial_env_lib_python2_7_site-packages_django_dispatch_saferef'
p602
(dp603
g6
(dp604
g30
S'_Users_michaelherman_Desktop_django-tastypie-tutorial_env_lib_python2_7_site-packages_django_dispatch_saferef.html'
p605
sg32
S'/Users/michaelherman/Desktop/django-tastypie-tutorial/env/lib/python2.7/site-packages/django/dispatch/saferef'
p606
sg34
g13
(g14
g15
NtRp607
(dp608
g18
I1
sg19
I0
sg20
I84
sg21
I0
sg22
I0
sg23
I61
sg24
I0
sbssg25
S'\x93\xb1\x97\xc2aa\x7fN\xc9GW \xb2\xcd \x9b'
p609
ssS'_Users_michaelherman_Desktop_django-tastypie-tutorial_env_lib_python2_7_site-packages_selenium_webdriver_remote_webelement'
p610
(dp611
g61
(dp612
g99
S'_Users_michaelherman_Desktop_django-tastypie-tutorial_env_lib_python2_7_site-packages_selenium_webdriver_remote_webelement.html'
p613
sg101
S'/Users/michaelherman/Desktop/django-tastypie-tutorial/env/lib/python2.7/site-packages/selenium/webdriver/remote/webelement'
p614
sg103
g13
(g14
g15
NtRp615
(dp616
g18
I1
sg19
I0
sg20
I162
sg21
I0
sg22
I0
sg23
I110
sg24
I0
sbssg70
S'\x88~8{T\xc9)\xd0(\xacm\x10\xc1@\x11`'
p617
ssS'_Users_michaelherman_Desktop_django-tastypie-tutorial_env_lib_python2_7_site-packages_django_core_serializers___init__'
p618
(dp619
g6
(dp620
g8
S'_Users_michaelherman_Desktop_django-tastypie-tutorial_env_lib_python2_7_site-packages_django_core_serializers___init__.html'
p621
sg10
S'/Users/michaelherman/Desktop/django-tastypie-tutorial/env/lib/python2.7/site-packages/django/core/serializers/__init__'
p622
sg12
g13
(g14
g15
NtRp623
(dp624
g18
I1
sg19
I0
sg20
I59
sg21
I0
sg22
I0
sg23
I40
sg24
I0
sbssg25
S'\xcd\x95\x81MM\x0e\x05\xf4\xb6]\xc6\xe8\x13)!\x14'
p625
ssS'whatevs___init__'
p626
(dp627
S'index'
p628
(dp629
g99
S'whatevs___init__.html'
p630
sg101
S'whatevs/__init__'
p631
sg103
g13
(g14
g15
NtRp632
(dp633
g18
I1
sg19
I0
sg20
I0
sg21
I0
sg22
I0
sg23
I0
sg24
I0
sbssS'hash'
p634
S'\xb0\xc8pN\xaf>\xa0\xbaz\x144\xe0A9\xb8?'
p635
ssS'_Users_michaelherman_Desktop_django-tastypie-tutorial_env_lib_python2_7_site-packages_django_utils_module_loading'
p636
(dp637
g6
(dp638
g8
S'_Users_michaelherman_Desktop_django-tastypie-tutorial_env_lib_python2_7_site-packages_django_utils_module_loading.html'
p639
sg10
S'/Users/michaelherman/Desktop/django-tastypie-tutorial/env/lib/python2.7/site-packages/django/utils/module_loading'
p640
sg12
g13
(g14
g15
NtRp641
(dp642
g18
I1
sg19
I0
sg20
I48
sg21
I0
sg22
I0
sg23
I27
sg24
I0
sbssg25
S'Z\xcas"\xa3|\x97\xd4\xe0a0\x84\xb1\xbc\x01\xe8'
p643
ssS'_Users_michaelherman_Desktop_django-tastypie-tutorial_env_lib_python2_7_site-packages_selenium_webdriver_opera_service'
p644
(dp645
g61
(dp646
g63
S'_Users_michaelherman_Desktop_django-tastypie-tutorial_env_lib_python2_7_site-packages_selenium_webdriver_opera_service.html'
p647
sg65
S'/Users/michaelherman/Desktop/django-tastypie-tutorial/env/lib/python2.7/site-packages/selenium/webdriver/opera/service'
p648
sg67
g13
(g14
g15
NtRp649
(dp650
g18
I1
sg19
I0
sg20
I30
sg21
I0
sg22
I0
sg23
I20
sg24
I0
sbssg70
S"'\xf3I\x9e;\xb1\x11A\x17\xf8*A\xa5;\xcc\xf0"
p651
ssS'_Users_michaelherman_Desktop_django-tastypie-tutorial_env_lib_python2_7_site-packages_tastypie_fields'
p652
(dp653
g197
(dp654
g199
S'_Users_michaelherman_Desktop_django-tastypie-tutorial_env_lib_python2_7_site-packages_tastypie_fields.html'
p655
sg201
S'/Users/michaelherman/Desktop/django-tastypie-tutorial/env/lib/python2.7/site-packages/tastypie/fields'
p656
sg203
g13
(g14
g15
NtRp657
(dp658
g18
I1
sg19
I0
sg20
I430
sg21
I0
sg22
I0
sg23
I306
sg24
I0
sbssg206
S'\xac\xf3*d6,f\xc9\xfd\xa6\xe7$\xeb\xd4\x0b\x16'
p659
ssS'_Users_michaelherman_Desktop_django-tastypie-tutorial_env_lib_python2_7_site-packages_django_core_management_sql'
p660
(dp661
g6
(dp662
g8
S'_Users_michaelherman_Desktop_django-tastypie-tutorial_env_lib_python2_7_site-packages_django_core_management_sql.html'
p663
sg10
S'/Users/michaelherman/Desktop/django-tastypie-tutorial/env/lib/python2.7/site-packages/django/core/management/sql'
p664
sg12
g13
(g14
g15
NtRp665
(dp666
g18
I1
sg19
I0
sg20
I115
sg21
I0
sg22
I0
sg23
I82
sg24
I0
sbssg25
S'\x9e\xc8\x99\t\xdb~\xce\x85\x1e\x97\xb5\xcf\x86\xad\x8d7'
p667
ssS'_Users_michaelherman_Desktop_django-tastypie-tutorial_env_lib_python2_7_site-packages_django_core_urlresolvers'
p668
(dp669
g6
(dp670
g30
S'_Users_michaelherman_Desktop_django-tastypie-tutorial_env_lib_python2_7_site-packages_django_core_urlresolvers.html'
p671
sg32
S'/Users/michaelherman/Desktop/django-tastypie-tutorial/env/lib/python2.7/site-packages/django/core/urlresolvers'
p672
sg34
g13
(g14
g15
NtRp673
(dp674
g18
I1
sg19
I0
sg20
I349
sg21
I0
sg22
I0
sg23
I276
sg24
I0
sbssg25
S'-\xcfV\\\xe1\x9bM\xcb\x1b\x1e\x96OoU\xdaG'
p675
ssS'_Users_michaelherman_Desktop_django-tastypie-tutorial_env_lib_python2_7_site-packages_django_db_models_related'
p676
(dp677
g6
(dp678
g8
S'_Users_michaelherman_Desktop_django-tastypie-tutorial_env_lib_python2_7_site-packages_django_db_models_related.html'
p679
sg10
S'/Users/michaelherman/Desktop/django-tastypie-tutorial/env/lib/python2.7/site-packages/django/db/models/related'
p680
sg12
g13
(g14
g15
NtRp681
(dp682
g18
I1
sg19
I0
sg20
I41
sg21
I0
sg22
I0
sg23
I17
sg24
I0
sbssg25
S'E\\w\xe5I\xe76K\x0f\xf1\x9dw\xba\xb1|\x1e'
p683
ssS'_Users_michaelherman_Desktop_django-tastypie-tutorial_env_lib_python2_7_site-packages_django_templatetags_static'
p684
(dp685
g6
(dp686
g8
S'_Users_michaelherman_Desktop_django-tastypie-tutorial_env_lib_python2_7_site-packages_django_templatetags_static.html'
p687
sg10
S'/Users/michaelherman/Desktop/django-tastypie-tutorial/env/lib/python2.7/site-packages/django/templatetags/static'
p688
sg12
g13
(g14
g15
NtRp689
(dp690
g18
I1
sg19
I0
sg20
I71
sg21
I0
sg22
I0
sg23
I47
sg24
I0
sbssg25
S'r\x06\x8e\xa1-$\x94\xb9p\xb1\x08,{\xaa\x10\xfa'
p691
ssS'_Users_michaelherman_Desktop_django-tastypie-tutorial_env_lib_python2_7_site-packages_django_core_management_base'
p692
(dp693
g6
(dp694
g30
S'_Users_michaelherman_Desktop_django-tastypie-tutorial_env_lib_python2_7_site-packages_django_core_management_base.html'
p695
sg32
S'/Users/michaelherman/Desktop/django-tastypie-tutorial/env/lib/python2.7/site-packages/django/core/management/base'
p696
sg34
g13
(g14
g15
NtRp697
(dp698
g18
I1
sg19
I0
sg20
I139
sg21
I0
sg22
I0
sg23
I52
sg24
I0
sbssg25
S'\x01\xd0\x00\xf2[\x04=\xda\x03\x98<\x0f\x01b\xf9Y'
p699
ssS'_Users_michaelherman_Desktop_django-tastypie-tutorial_env_lib_python2_7_site-packages_selenium_webdriver_chrome___init__'
p700
(dp701
g61
(dp702
g63
S'_Users_michaelherman_Desktop_django-tastypie-tutorial_env_lib_python2_7_site-packages_selenium_webdriver_chrome___init__.html'
p703
sg65
S'/Users/michaelherman/Desktop/django-tastypie-tutorial/env/lib/python2.7/site-packages/selenium/webdriver/chrome/__init__'
p704
sg67
g13
(g14
g15
NtRp705
(dp706
g18
I1
sg19
I0
sg20
I0
sg21
I0
sg22
I0
sg23
I0
sg24
I0
sbssg70
S'W\xed\xba.gR]] \xb4\x9c\x7f\xd5b\xe9\x83'
p707
ssS'_Users_michaelherman_Desktop_django-tastypie-tutorial_env_lib_python2_7_site-packages_selenium_webdriver_phantomjs_service'
p708
(dp709
g61
(dp710
g63
S'_Users_michaelherman_Desktop_django-tastypie-tutorial_env_lib_python2_7_site-packages_selenium_webdriver_phantomjs_service.html'
p711
sg65
S'/Users/michaelherman/Desktop/django-tastypie-tutorial/env/lib/python2.7/site-packages/selenium/webdriver/phantomjs/service'
p712
sg67
g13
(g14
g15
NtRp713
(dp714
g18
I1
sg19
I0
sg20
I43
sg21
I0
sg22
I0
sg23
I34
sg24
I0
sbssg70
S'\xad\xf8\xda.\x9b\x9f\x98\xf7}\xfbU\x8f\x98V@\x9d'
p715
ssS'_Users_michaelherman_Desktop_django-tastypie-tutorial_env_lib_python2_7_site-packages_django_test_utils'
p716
(dp717
g6
(dp718
g30
S'_Users_michaelherman_Desktop_django-tastypie-tutorial_env_lib_python2_7_site-packages_django_test_utils.html'
p719
sg32
S'/Users/michaelherman/Desktop/django-tastypie-tutorial/env/lib/python2.7/site-packages/django/test/utils'
p720
sg34
g13
(g14
g15
NtRp721
(dp722
g18
I1
sg19
I0
sg20
I187
sg21
I0
sg22
I0
sg23
I125
sg24
I0
sbssg25
S'\xd02V$\xac\xf4T\x01s\xaa\xae\xa2ya\x1d='
p723
ssS'_Users_michaelherman_Desktop_django-tastypie-tutorial_env_lib_python2_7_site-packages_south___init__'
p724
(dp725
g6
(dp726
g8
S'_Users_michaelherman_Desktop_django-tastypie-tutorial_env_lib_python2_7_site-packages_south___init__.html'
p727
sg10
S'/Users/michaelherman/Desktop/django-tastypie-tutorial/env/lib/python2.7/site-packages/south/__init__'
p728
sg12
g13
(g14
g15
NtRp729
(dp730
g18
I1
sg19
I0
sg20
I2
sg21
I0
sg22
I0
sg23
I0
sg24
I0
sbssg25
S';P\x1e\xd7C"\x13\x1d=c,\\h\x00\xbep'
p731
ssS'_Users_michaelherman_Desktop_django-tastypie-tutorial_env_lib_python2_7_site-packages_django_core_context_processors'
p732
(dp733
g197
(dp734
g199
S'_Users_michaelherman_Desktop_django-tastypie-tutorial_env_lib_python2_7_site-packages_django_core_context_processors.html'
p735
sg201
S'/Users/michaelherman/Desktop/django-tastypie-tutorial/env/lib/python2.7/site-packages/django/core/context_processors'
p736
sg203
g13
(g14
g15
NtRp737
(dp738
g18
I1
sg19
I0
sg20
I37
sg21
I0
sg22
I0
sg23
I21
sg24
I0
sbssg206
S'\x91\xaa\xa2\xbb:\xf1\xad{J&\x99^\xa0\xa9\xf5\xcf'
p739
ssS'_Users_michaelherman_Desktop_django-tastypie-tutorial_env_lib_python2_7_site-packages_django_views_decorators___init__'
p740
(dp741
g6
(dp742
g8
S'_Users_michaelherman_Desktop_django-tastypie-tutorial_env_lib_python2_7_site-packages_django_views_decorators___init__.html'
p743
sg10
S'/Users/michaelherman/Desktop/django-tastypie-tutorial/env/lib/python2.7/site-packages/django/views/decorators/__init__'
p744
sg12
g13
(g14
g15
NtRp745
(dp746
g18
I1
sg19
I0
sg20
I0
sg21
I0
sg22
I0
sg23
I0
sg24
I0
sbssg25
S'\xb0\xc8pN\xaf>\xa0\xbaz\x144\xe0A9\xb8?'
p747
ssS'_Users_michaelherman_Desktop_django-tastypie-tutorial_env_lib_python2_7_site-packages_tastypie_utils_formatting'
p748
(dp749
g197
(dp750
g199
S'_Users_michaelherman_Desktop_django-tastypie-tutorial_env_lib_python2_7_site-packages_tastypie_utils_formatting.html'
p751
sg201
S'/Users/michaelherman/Desktop/django-tastypie-tutorial/env/lib/python2.7/site-packages/tastypie/utils/formatting'
p752
sg203
g13
(g14
g15
NtRp753
(dp754
g18
I1
sg19
I0
sg20
I18
sg21
I0
sg22
I0
sg23
I8
sg24
I0
sbssg206
S'_\x11s\xdd\x8e*G\xb5\x13<\xfcg\x1f\xe1\xdaO'
p755
ssS'_Users_michaelherman_Desktop_django-tastypie-tutorial_env_lib_python2_7_site-packages_django_contrib_admin_sites'
p756
(dp757
g6
(dp758
g30
S'_Users_michaelherman_Desktop_django-tastypie-tutorial_env_lib_python2_7_site-packages_django_contrib_admin_sites.html'
p759
sg32
S'/Users/michaelherman/Desktop/django-tastypie-tutorial/env/lib/python2.7/site-packages/django/contrib/admin/sites'
p760
sg34
g13
(g14
g15
NtRp761
(dp762
g18
I1
sg19
I0
sg20
I204
sg21
I0
sg22
I0
sg23
I147
sg24
I0
sbssg25
S'P\x96\xeb9\xc2\x9e\xca(\xed\xf4XS\xd6\xc3\xe9&'
p763
ssS'_Users_michaelherman_Desktop_django-tastypie-tutorial_env_lib_python2_7_site-packages_tastypie_test'
p764
(dp765
g40
(dp766
g42
S'_Users_michaelherman_Desktop_django-tastypie-tutorial_env_lib_python2_7_site-packages_tastypie_test.html'
p767
sg44
S'/Users/michaelherman/Desktop/django-tastypie-tutorial/env/lib/python2.7/site-packages/tastypie/test'
p768
sg46
g13
(g14
g15
NtRp769
(dp770
g18
I1
sg19
I0
sg20
I143
sg21
I0
sg22
I0
sg23
I73
sg24
I0
sbssg49
S'\xba\xa5\xb7{%\xb3\x1a\xb7\xb6w\xb3#\x12\xe2`\xd8'
p771
ssS'_Users_michaelherman_Desktop_django-tastypie-tutorial_env_lib_python2_7_site-packages_django_db_models_sql_expressions'
p772
(dp773
g6
(dp774
g8
S'_Users_michaelherman_Desktop_django-tastypie-tutorial_env_lib_python2_7_site-packages_django_db_models_sql_expressions.html'
p775
sg10
S'/Users/michaelherman/Desktop/django-tastypie-tutorial/env/lib/python2.7/site-packages/django/db/models/sql/expressions'
p776
sg12
g13
(g14
g15
NtRp777
(dp778
g18
I1
sg19
I0
sg20
I74
sg21
I0
sg22
I0
sg23
I61
sg24
I0
sbssg25
S'\x05\xdf\xd8\x9e\x0e\xff\x10e\xad`Q\xd62\xd10\xd5'
p779
ssS'_Users_michaelherman_Desktop_django-tastypie-tutorial_env_lib_python2_7_site-packages_django_template_loaders_filesystem'
p780
(dp781
g197
(dp782
g199
S'_Users_michaelherman_Desktop_django-tastypie-tutorial_env_lib_python2_7_site-packages_django_template_loaders_filesystem.html'
p783
sg201
S'/Users/michaelherman/Desktop/django-tastypie-tutorial/env/lib/python2.7/site-packages/django/template/loaders/filesystem'
p784
sg203
g13
(g14
g15
NtRp785
(dp786
g18
I1
sg19
I0
sg20
I29
sg21
I0
sg22
I0
sg23
I8
sg24
I0
sbssg206
S'\xc2\xaesL2\xf8\x1e\x15\\,\xe8\x82\x16\x9d\xed\xc1'
p787
ssS'_Users_michaelherman_Desktop_django-tastypie-tutorial_env_lib_python2_7_site-packages_mimeparse'
p788
(dp789
g197
(dp790
g99
S'_Users_michaelherman_Desktop_django-tastypie-tutorial_env_lib_python2_7_site-packages_mimeparse.html'
p791
sg101
S'/Users/michaelherman/Desktop/django-tastypie-tutorial/env/lib/python2.7/site-packages/mimeparse'
p792
sg103
g13
(g14
g15
NtRp793
(dp794
g18
I1
sg19
I0
sg20
I48
sg21
I0
sg22
I0
sg23
I3
sg24
I0
sbssg206
S'\xc3\xbdQU\xc0M>4\xba\xdc\xb5\x8b\xc4!\xf3^'
p795
ssS'_Users_michaelherman_Desktop_django-tastypie-tutorial_env_lib_python2_7_site-packages_django_contrib_admin_filters'
p796
(dp797
g6
(dp798
g8
S'_Users_michaelherman_Desktop_django-tastypie-tutorial_env_lib_python2_7_site-packages_django_contrib_admin_filters.html'
p799
sg10
S'/Users/michaelherman/Desktop/django-tastypie-tutorial/env/lib/python2.7/site-packages/django/contrib/admin/filters'
p800
sg12
g13
(g14
g15
NtRp801
(dp802
g18
I1
sg19
I0
sg20
I184
sg21
I0
sg22
I0
sg23
I123
sg24
I0
sbssg25
S'\xd1\xb1-a\xf9\x97}\x95\x86g\x7f\x1e6\x88H\xb7'
p803
ssS'_Users_michaelherman_Desktop_django-tastypie-tutorial_env_lib_python2_7_site-packages_south_utils_datetime_utils'
p804
(dp805
g6
(dp806
g8
S'_Users_michaelherman_Desktop_django-tastypie-tutorial_env_lib_python2_7_site-packages_south_utils_datetime_utils.html'
p807
sg10
S'/Users/michaelherman/Desktop/django-tastypie-tutorial/env/lib/python2.7/site-packages/south/utils/datetime_utils'
p808
sg12
g13
(g14
g15
NtRp809
(dp810
g18
I1
sg19
I0
sg20
I13
sg21
I0
sg22
I0
sg23
I5
sg24
I0
sbssg25
S'#\xd4%\xc1\x13b\xbe\xdc\x97\xcbi\xabX\x00\xa2\xa7'
p811
ssS'_Users_michaelherman_Desktop_django-tastypie-tutorial_env_lib_python2_7_site-packages_django_http_multipartparser'
p812
(dp813
g6
(dp814
g8
S'_Users_michaelherman_Desktop_django-tastypie-tutorial_env_lib_python2_7_site-packages_django_http_multipartparser.html'
p815
sg10
S'/Users/michaelherman/Desktop/django-tastypie-tutorial/env/lib/python2.7/site-packages/django/http/multipartparser'
p816
sg12
g13
(g14
g15
NtRp817
(dp818
g18
I1
sg19
I0
sg20
I348
sg21
I0
sg22
I0
sg23
I296
sg24
I0
sbssg25
S'\x90\xcc\xa5\x82\xa3\xfcp[\r\xadc%\xf6\x0e.\xb3'
p819
ssS'_Users_michaelherman_Desktop_django-tastypie-tutorial_env_lib_python2_7_site-packages_django_core_files_images'
p820
(dp821
g6
(dp822
g8
S'_Users_michaelherman_Desktop_django-tastypie-tutorial_env_lib_python2_7_site-packages_django_core_files_images.html'
p823
sg10
S'/Users/michaelherman/Desktop/django-tastypie-tutorial/env/lib/python2.7/site-packages/django/core/files/images'
p824
sg12
g13
(g14
g15
NtRp825
(dp826
g18
I1
sg19
I0
sg20
I40
sg21
I0
sg22
I0
sg23
I32
sg24
I0
sbssg25
S'\xcf\x19\xca\xed\xd0\x9f\xdd\x00\xc0\xb9\xceq\xff\xa6JJ'
p827
ssS'_Users_michaelherman_Desktop_django-tastypie-tutorial_env_lib_python2_7_site-packages_django_contrib_admin_widgets'
p828
(dp829
g6
(dp830
g8
S'_Users_michaelherman_Desktop_django-tastypie-tutorial_env_lib_python2_7_site-packages_django_contrib_admin_widgets.html'
p831
sg10
S'/Users/michaelherman/Desktop/django-tastypie-tutorial/env/lib/python2.7/site-packages/django/contrib/admin/widgets'
p832
sg12
g13
(g14
g15
NtRp833
(dp834
g18
I1
sg19
I0
sg20
I223
sg21
I0
sg22
I0
sg23
I154
sg24
I0
sbssg25
S"\xbas\x97\xd8[\x11\n\xba\x90'GA\x18\xb4\xc5\x9e"
p835
ssS'_Users_michaelherman_Desktop_django-tastypie-tutorial_env_lib_python2_7_site-packages_tastypie_http'
p836
(dp837
g197
(dp838
g199
S'_Users_michaelherman_Desktop_django-tastypie-tutorial_env_lib_python2_7_site-packages_tastypie_http.html'
p839
sg201
S'/Users/michaelherman/Desktop/django-tastypie-tutorial/env/lib/python2.7/site-packages/tastypie/http'
p840
sg203
g13
(g14
g15
NtRp841
(dp842
g18
I1
sg19
I0
sg20
I37
sg21
I0
sg22
I0
sg23
I3
sg24
I0
sbssg206
S'T\xbd\xec\x9c\xfa3\x9f\xac^\xda\xe8\x18\x96o\xf5\xcb'
p843
ssS'_Users_michaelherman_Desktop_django-tastypie-tutorial_env_lib_python2_7_site-packages_django_core_files_base'
p844
(dp845
g6
(dp846
g8
S'_Users_michaelherman_Desktop_django-tastypie-tutorial_env_lib_python2_7_site-packages_django_core_files_base.html'
p847
sg10
S'/Users/michaelherman/Desktop/django-tastypie-tutorial/env/lib/python2.7/site-packages/django/core/files/base'
p848
sg12
g13
(g14
g15
NtRp849
(dp850
g18
I1
sg19
I0
sg20
I106
sg21
I0
sg22
I0
sg23
I70
sg24
I0
sbssg25
S'4\xa9\x80\x03\xbc\x98\xe4u\\@\xe5\x9de\xb8lr'
p851
ssS'_Users_michaelherman_Desktop_django-tastypie-tutorial_env_lib_python2_7_site-packages_django_shortcuts___init__'
p852
(dp853
g6
(dp854
g30
S'_Users_michaelherman_Desktop_django-tastypie-tutorial_env_lib_python2_7_site-packages_django_shortcuts___init__.html'
p855
sg32
S'/Users/michaelherman/Desktop/django-tastypie-tutorial/env/lib/python2.7/site-packages/django/shortcuts/__init__'
p856
sg34
g13
(g14
g15
NtRp857
(dp858
g18
I1
sg19
I0
sg20
I63
sg21
I0
sg22
I0
sg23
I48
sg24
I0
sbssg25
S"\xa2\xef\xfa\xdcE12'ad\x01\xe8\x12$\x8f\xb8"
p859
ssS'_Users_michaelherman_Desktop_django-tastypie-tutorial_env_lib_python2_7_site-packages_selenium_webdriver_common_desired_capabilities'
p860
(dp861
g61
(dp862
g63
S'_Users_michaelherman_Desktop_django-tastypie-tutorial_env_lib_python2_7_site-packages_selenium_webdriver_common_desired_capabilities.html'
p863
sg65
S'/Users/michaelherman/Desktop/django-tastypie-tutorial/env/lib/python2.7/site-packages/selenium/webdriver/common/desired_capabilities'
p864
sg67
g13
(g14
g15
NtRp865
(dp866
g18
I1
sg19
I0
sg20
I12
sg21
I0
sg22
I0
sg23
I0
sg24
I0
sbssg70
S'\xd5\xb2\x80\x16\xa2\x9f\xde\xbe\xb9!BI\x1d}\x91\xf1'
p867
ssS'_Users_michaelherman_Desktop_django-tastypie-tutorial_env_lib_python2_7_site-packages_selenium_webdriver_ie_service'
p868
(dp869
g61
(dp870
g63
S'_Users_michaelherman_Desktop_django-tastypie-tutorial_env_lib_python2_7_site-packages_selenium_webdriver_ie_service.html'
p871
sg65
S'/Users/michaelherman/Desktop/django-tastypie-tutorial/env/lib/python2.7/site-packages/selenium/webdriver/ie/service'
p872
sg67
g13
(g14
g15
NtRp873
(dp874
g18
I1
sg19
I0
sg20
I54
sg21
I0
sg22
I0
sg23
I45
sg24
I0
sbssg70
S'\x10\xb9\xc7\xae4\xea\xe5\x8dyh\xadx\xbf\xc3-\xf0'
p875
ssS'_Users_michaelherman_Desktop_django-tastypie-tutorial_env_lib_python2_7_site-packages_django_db_models_query_utils'
p876
(dp877
g6
(dp878
g8
S'_Users_michaelherman_Desktop_django-tastypie-tutorial_env_lib_python2_7_site-packages_django_db_models_query_utils.html'
p879
sg10
S'/Users/michaelherman/Desktop/django-tastypie-tutorial/env/lib/python2.7/site-packages/django/db/models/query_utils'
p880
sg12
g13
(g14
g15
NtRp881
(dp882
g18
I1
sg19
I0
sg20
I92
sg21
I0
sg22
I0
sg23
I65
sg24
I0
sbssg25
S'o\xa7\xc3\x81\x989\n\xc7m\xee~\xcas\x08Ak'
p883
ssS'_Users_michaelherman_Desktop_django-tastypie-tutorial_env_lib_python2_7_site-packages_django_views_debug'
p884
(dp885
g6
(dp886
g8
S'_Users_michaelherman_Desktop_django-tastypie-tutorial_env_lib_python2_7_site-packages_django_views_debug.html'
p887
sg10
S'/Users/michaelherman/Desktop/django-tastypie-tutorial/env/lib/python2.7/site-packages/django/views/debug'
p888
sg12
g13
(g14
g15
NtRp889
(dp890
g18
I1
sg19
I0
sg20
I276
sg21
I0
sg22
I0
sg23
I230
sg24
I0
sbssg25
S'\\\xab\xf7\x80PC\xcb5\x87\t\xb3f\xa1\xd2\xe1('
p891
ssS'_Users_michaelherman_Desktop_django-tastypie-tutorial_env_lib_python2_7_site-packages_south_migration_base'
p892
(dp893
g6
(dp894
g8
S'_Users_michaelherman_Desktop_django-tastypie-tutorial_env_lib_python2_7_site-packages_south_migration_base.html'
p895
sg10
S'/Users/michaelherman/Desktop/django-tastypie-tutorial/env/lib/python2.7/site-packages/south/migration/base'
p896
sg12
g13
(g14
g15
NtRp897
(dp898
g18
I1
sg19
I0
sg20
I276
sg21
I0
sg22
I0
sg23
I167
sg24
I0
sbssg25
S'\xec\x1bC\x18\xef\t*N\xeco\x9a\xeb\x97Zv '
p899
ssS'_Users_michaelherman_Desktop_django-tastypie-tutorial_env_lib_python2_7_site-packages_django_core_serializers_json'
p900
(dp901
g197
(dp902
g199
S'_Users_michaelherman_Desktop_django-tastypie-tutorial_env_lib_python2_7_site-packages_django_core_serializers_json.html'
p903
sg201
S'/Users/michaelherman/Desktop/django-tastypie-tutorial/env/lib/python2.7/site-packages/django/core/serializers/json'
p904
sg203
g13
(g14
g15
NtRp905
(dp906
g18
I1
sg19
I0
sg20
I72
sg21
I0
sg22
I0
sg23
I53
sg24
I0
sbssg206
S'\xad)W\xfe\x175\xcb\x97\x8c\xca\x7fW\xde.3\x9d'
p907
ssS'_Users_michaelherman_Desktop_django-tastypie-tutorial_env_lib_python2_7_site-packages_django_http_request'
p908
(dp909
g6
(dp910
g30
S'_Users_michaelherman_Desktop_django-tastypie-tutorial_env_lib_python2_7_site-packages_django_http_request.html'
p911
sg32
S'/Users/michaelherman/Desktop/django-tastypie-tutorial/env/lib/python2.7/site-packages/django/http/request'
p912
sg34
g13
(g14
g15
NtRp913
(dp914
g18
I1
sg19
I0
sg20
I280
sg21
I0
sg22
I0
sg23
I204
sg24
I0
sbssg25
S'\xdf\x85\xd5)"\xaf\n\xb6|=:\xc9\x9cT\xd3\xef'
p915
ssS'_Users_michaelherman_Desktop_django-tastypie-tutorial_env_lib_python2_7_site-packages_defusedxml_common'
p916
(dp917
g197
(dp918
g199
S'_Users_michaelherman_Desktop_django-tastypie-tutorial_env_lib_python2_7_site-packages_defusedxml_common.html'
p919
sg201
S'/Users/michaelherman/Desktop/django-tastypie-tutorial/env/lib/python2.7/site-packages/defusedxml/common'
p920
sg203
g13
(g14
g15
NtRp921
(dp922
g18
I1
sg19
I0
sg20
I94
sg21
I0
sg22
I0
sg23
I74
sg24
I0
sbssg206
S'\x98\x8fU\xfb\x1a\xd8l\nH\xae\x10\xd3\x14)\xec&'
p923
ssS'_Users_michaelherman_Desktop_django-tastypie-tutorial_env_lib_python2_7_site-packages_selenium_webdriver_common___init__'
p924
(dp925
g61
(dp926
g63
S'_Users_michaelherman_Desktop_django-tastypie-tutorial_env_lib_python2_7_site-packages_selenium_webdriver_common___init__.html'
p927
sg65
S'/Users/michaelherman/Desktop/django-tastypie-tutorial/env/lib/python2.7/site-packages/selenium/webdriver/common/__init__'
p928
sg67
g13
(g14
g15
NtRp929
(dp930
g18
I1
sg19
I0
sg20
I0
sg21
I0
sg22
I0
sg23
I0
sg24
I0
sbssg70
S'W\xed\xba.gR]] \xb4\x9c\x7f\xd5b\xe9\x83'
p931
ssS'_Users_michaelherman_Desktop_django-tastypie-tutorial_env_lib_python2_7_site-packages_selenium_selenium'
p932
(dp933
g61
(dp934
g63
S'_Users_michaelherman_Desktop_django-tastypie-tutorial_env_lib_python2_7_site-packages_selenium_selenium.html'
p935
sg65
S'/Users/michaelherman/Desktop/django-tastypie-tutorial/env/lib/python2.7/site-packages/selenium/selenium'
p936
sg67
g13
(g14
g15
NtRp937
(dp938
g18
I1
sg19
I0
sg20
I400
sg21
I0
sg22
I0
sg23
I228
sg24
I0
sbssg70
S'\xba\xc7\x83$\x99G\x1c/z\x8fb\xbdmF\xf1I'
p939
ssS'whatevs_models'
p940
(dp941
g628
(dp942
g30
S'whatevs_models.html'
p943
sg32
S'whatevs/models'
p944
sg34
g13
(g14
g15
NtRp945
(dp946
g18
I1
sg19
I0
sg20
I15
sg21
I0
sg22
I0
sg23
I0
sg24
I0
sbssg634
S'\x18\xc2\xb6\x19H.\xa80us\xe2\xc6Fn\xbaM'
p947
ssS'_Users_michaelherman_Desktop_django-tastypie-tutorial_env_lib_python2_7_site-packages_django_contrib_admin_forms'
p948
(dp949
g6
(dp950
g8
S'_Users_michaelherman_Desktop_django-tastypie-tutorial_env_lib_python2_7_site-packages_django_contrib_admin_forms.html'
p951
sg10
S'/Users/michaelherman/Desktop/django-tastypie-tutorial/env/lib/python2.7/site-packages/django/contrib/admin/forms'
p952
sg12
g13
(g14
g15
NtRp953
(dp954
g18
I1
sg19
I0
sg20
I20
sg21
I0
sg22
I0
sg23
I11
sg24
I0
sbssg25
S'\xb3\x8b\x18/\xb9h\x14\x1e\x00C\x96\x9f;\xd1M\x0f'
p955
ssS'_Users_michaelherman_Desktop_django-tastypie-tutorial_env_lib_python2_7_site-packages_django_db_models_loading'
p956
(dp957
g6
(dp958
g8
S'_Users_michaelherman_Desktop_django-tastypie-tutorial_env_lib_python2_7_site-packages_django_db_models_loading.html'
p959
sg10
S'/Users/michaelherman/Desktop/django-tastypie-tutorial/env/lib/python2.7/site-packages/django/db/models/loading'
p960
sg12
g13
(g14
g15
NtRp961
(dp962
g18
I1
sg19
I0
sg20
I121
sg21
I0
sg22
I0
sg23
I17
sg24
I0
sbssg25
S'\x1b\x1dK\xb6D\xfa\xcdu\xcc\xd4\x11S\xcb\xf9\x01\r'
p963
ssS'_Users_michaelherman_Desktop_django-tastypie-tutorial_env_lib_python2_7_site-packages_django_utils_cache'
p964
(dp965
g6
(dp966
g30
S'_Users_michaelherman_Desktop_django-tastypie-tutorial_env_lib_python2_7_site-packages_django_utils_cache.html'
p967
sg32
S'/Users/michaelherman/Desktop/django-tastypie-tutorial/env/lib/python2.7/site-packages/django/utils/cache'
p968
sg34
g13
(g14
g15
NtRp969
(dp970
g18
I1
sg19
I0
sg20
I126
sg21
I0
sg22
I0
sg23
I102
sg24
I0
sbssg25
S'\xd6\x18pb\x0f\x00an\xa1\xf4\xac\xd1\xa8\xe4\x0c\xbf'
p971
ssS'_Users_michaelherman_Desktop_django-tastypie-tutorial_env_lib_python2_7_site-packages_django_db_models___init__'
p972
(dp973
g6
(dp974
g8
S'_Users_michaelherman_Desktop_django-tastypie-tutorial_env_lib_python2_7_site-packages_django_db_models___init__.html'
p975
sg10
S'/Users/michaelherman/Desktop/django-tastypie-tutorial/env/lib/python2.7/site-packages/django/db/models/__init__'
p976
sg12
g13
(g14
g15
NtRp977
(dp978
g18
I1
sg19
I0
sg20
I22
sg21
I0
sg22
I0
sg23
I5
sg24
I0
sbssg25
S'\xe0\x1a&\xbc\x03aQ \x8f\xa5Y\xf1\xe6\xcb\xc4\xcf'
p979
ssS'_Users_michaelherman_Desktop_django-tastypie-tutorial_env_lib_python2_7_site-packages_tastypie_utils_validate_jsonp'
p980
(dp981
g197
(dp982
g199
S'_Users_michaelherman_Desktop_django-tastypie-tutorial_env_lib_python2_7_site-packages_tastypie_utils_validate_jsonp.html'
p983
sg201
S'/Users/michaelherman/Desktop/django-tastypie-tutorial/env/lib/python2.7/site-packages/tastypie/utils/validate_jsonp'
p984
sg203
g13
(g14
g15
NtRp985
(dp986
g18
I1
sg19
I0
sg20
I53
sg21
I0
sg22
I0
sg23
I39
sg24
I0
sbssg206
S'\x14\xa3\x89*\xc5\xaf\x1a\xa4\xb9\x13\xad~\xb6\xc6\xc8\xd1'
p987
ssS'_Users_michaelherman_Desktop_django-tastypie-tutorial_env_lib_python2_7_site-packages_tastypie_throttle'
p988
(dp989
g197
(dp990
g99
S'_Users_michaelherman_Desktop_django-tastypie-tutorial_env_lib_python2_7_site-packages_tastypie_throttle.html'
p991
sg101
S'/Users/michaelherman/Desktop/django-tastypie-tutorial/env/lib/python2.7/site-packages/tastypie/throttle'
p992
sg103
g13
(g14
g15
NtRp993
(dp994
g18
I1
sg19
I0
sg20
I40
sg21
I0
sg22
I0
sg23
I21
sg24
I0
sbssg206
S'\xe9\xcc\x02\x1fM\xbb\x19_\xc5"\xdf\xb8\xdc\xb6=~'
p995
ssS'_Users_michaelherman_Desktop_django-tastypie-tutorial_env_lib_python2_7_site-packages_django_core_management_commands_syncdb'
p996
(dp997
g6
(dp998
g8
S'_Users_michaelherman_Desktop_django-tastypie-tutorial_env_lib_python2_7_site-packages_django_core_management_commands_syncdb.html'
p999
sg10
S'/Users/michaelherman/Desktop/django-tastypie-tutorial/env/lib/python2.7/site-packages/django/core/management/commands/syncdb'
p1000
sg12
g13
(g14
g15
NtRp1001
(dp1002
g18
I1
sg19
I0
sg20
I99
sg21
I0
sg22
I0
sg23
I20
sg24
I0
sbssg25
S'L\xd0\xd9\xf5\x1f.\x1e\x06\xfa]\xfd\t\x1eO/\x83'
p1003
ssS'_Users_michaelherman_Desktop_django-tastypie-tutorial_env_lib_python2_7_site-packages_django_conf_urls___init__'
p1004
(dp1005
g197
(dp1006
g199
S'_Users_michaelherman_Desktop_django-tastypie-tutorial_env_lib_python2_7_site-packages_django_conf_urls___init__.html'
p1007
sg201
S'/Users/michaelherman/Desktop/django-tastypie-tutorial/env/lib/python2.7/site-packages/django/conf/urls/__init__'
p1008
sg203
g13
(g14
g15
NtRp1009
(dp1010
g18
I1
sg19
I0
sg20
I41
sg21
I0
sg22
I0
sg23
I5
sg24
I0
sbssg206
S'\x9c\xa5\xc1\xc95\x81p\x9c\xf1\xe4t\xc3Ebh\xea'
p1011
ssS'_Users_michaelherman_Desktop_django-tastypie-tutorial_env_lib_python2_7_site-packages_django_contrib_admin_actions'
p1012
(dp1013
g6
(dp1014
g8
S'_Users_michaelherman_Desktop_django-tastypie-tutorial_env_lib_python2_7_site-packages_django_contrib_admin_actions.html'
p1015
sg10
S'/Users/michaelherman/Desktop/django-tastypie-tutorial/env/lib/python2.7/site-packages/django/contrib/admin/actions'
p1016
sg12
g13
(g14
g15
NtRp1017
(dp1018
g18
I1
sg19
I0
sg20
I34
sg21
I0
sg22
I0
sg23
I25
sg24
I0
sbssg25
S'l\x91\x91\xef\xc5=\x12DR\x98\x8d\x11\x80z!\x0e'
p1019
ssS'whatevs_admin'
p1020
(dp1021
g628
(dp1022
g99
S'whatevs_admin.html'
p1023
sg101
S'whatevs/admin'
p1024
sg103
g13
(g14
g15
NtRp1025
(dp1026
g18
I1
sg19
I0
sg20
I4
sg21
I0
sg22
I0
sg23
I0
sg24
I0
sbssg634
S'!\xe8@\x0cDAp/\xabK8\xfe\xac\xd1\xae\xec'
p1027
ssS'_Users_michaelherman_Desktop_django-tastypie-tutorial_env_lib_python2_7_site-packages_django_template_base'
p1028
(dp1029
g6
(dp1030
g30
S'_Users_michaelherman_Desktop_django-tastypie-tutorial_env_lib_python2_7_site-packages_django_template_base.html'
p1031
sg32
S'/Users/michaelherman/Desktop/django-tastypie-tutorial/env/lib/python2.7/site-packages/django/template/base'
p1032
sg34
g13
(g14
g15
NtRp1033
(dp1034
g18
I1
sg19
I0
sg20
I778
sg21
I0
sg22
I0
sg23
I563
sg24
I0
sbssg25
S'\xa9\xfd\xe8\x04\x18\x9f\x17~\xfb\xe7\x12\x1c\x8c\xd8\xfa\xcb'
p1035
ssS'_Users_michaelherman_Desktop_django-tastypie-tutorial_env_lib_python2_7_site-packages_selenium_webdriver_opera___init__'
p1036
(dp1037
g61
(dp1038
g63
S'_Users_michaelherman_Desktop_django-tastypie-tutorial_env_lib_python2_7_site-packages_selenium_webdriver_opera___init__.html'
p1039
sg65
S'/Users/michaelherman/Desktop/django-tastypie-tutorial/env/lib/python2.7/site-packages/selenium/webdriver/opera/__init__'
p1040
sg67
g13
(g14
g15
NtRp1041
(dp1042
g18
I1
sg19
I0
sg20
I0
sg21
I0
sg22
I0
sg23
I0
sg24
I0
sbssg70
S'j\xe4%\xd6^\xf1W1\xb8\x1c\x8a\x7fj\xa9\x1d\xce'
p1043
ssS'_Users_michaelherman_Desktop_django-tastypie-tutorial_env_lib_python2_7_site-packages_django_contrib_auth_forms'
p1044
(dp1045
g6
(dp1046
g8
S'_Users_michaelherman_Desktop_django-tastypie-tutorial_env_lib_python2_7_site-packages_django_contrib_auth_forms.html'
p1047
sg10
S'/Users/michaelherman/Desktop/django-tastypie-tutorial/env/lib/python2.7/site-packages/django/contrib/auth/forms'
p1048
sg12
g13
(g14
g15
NtRp1049
(dp1050
g18
I1
sg19
I0
sg20
I181
sg21
I0
sg22
I0
sg23
I105
sg24
I0
sbssg25
S'\xcaU\xe0\xb3\x96KKn_\x06\xac\xaa*p@\xc8'
p1051
ssS'_Users_michaelherman_Desktop_django-tastypie-tutorial_env_lib_python2_7_site-packages_django_core_management_commands_flush'
p1052
(dp1053
g6
(dp1054
g8
S'_Users_michaelherman_Desktop_django-tastypie-tutorial_env_lib_python2_7_site-packages_django_core_management_commands_flush.html'
p1055
sg10
S'/Users/michaelherman/Desktop/django-tastypie-tutorial/env/lib/python2.7/site-packages/django/core/management/commands/flush'
p1056
sg12
g13
(g14
g15
NtRp1057
(dp1058
g18
I1
sg19
I0
sg20
I46
sg21
I0
sg22
I0
sg23
I33
sg24
I0
sbssg25
S'\x00\xa0\xf3\x17$\x119\xb5S\x9b\x9d\xf6\xa3\x01\xb6\xeb'
p1059
ssS'_Users_michaelherman_Desktop_django-tastypie-tutorial_env_lib_python2_7_site-packages_tastypie_serializers'
p1060
(dp1061
g197
(dp1062
g99
S'_Users_michaelherman_Desktop_django-tastypie-tutorial_env_lib_python2_7_site-packages_tastypie_serializers.html'
p1063
sg101
S'/Users/michaelherman/Desktop/django-tastypie-tutorial/env/lib/python2.7/site-packages/tastypie/serializers'
p1064
sg103
g13
(g14
g15
NtRp1065
(dp1066
g18
I1
sg19
I0
sg20
I273
sg21
I0
sg22
I0
sg23
I138
sg24
I0
sbssg206
S'\xc6o\xcbAo\x1aD\xb2\xf3BT\xe90a\x80:'
p1067
ssS'_Users_michaelherman_Desktop_django-tastypie-tutorial_env_lib_python2_7_site-packages_django_core_handlers___init__'
p1068
(dp1069
g6
(dp1070
g8
S'_Users_michaelherman_Desktop_django-tastypie-tutorial_env_lib_python2_7_site-packages_django_core_handlers___init__.html'
p1071
sg10
S'/Users/michaelherman/Desktop/django-tastypie-tutorial/env/lib/python2.7/site-packages/django/core/handlers/__init__'
p1072
sg12
g13
(g14
g15
NtRp1073
(dp1074
g18
I1
sg19
I0
sg20
I0
sg21
I0
sg22
I0
sg23
I0
sg24
I0
sbssg25
S'\xb0\xc8pN\xaf>\xa0\xbaz\x144\xe0A9\xb8?'
p1075
ssS'_Users_michaelherman_Desktop_django-tastypie-tutorial_env_lib_python2_7_site-packages_django_core_cache_backends_base'
p1076
(dp1077
g6
(dp1078
g8
S'_Users_michaelherman_Desktop_django-tastypie-tutorial_env_lib_python2_7_site-packages_django_core_cache_backends_base.html'
p1079
sg10
S'/Users/michaelherman/Desktop/django-tastypie-tutorial/env/lib/python2.7/site-packages/django/core/cache/backends/base'
p1080
sg12
g13
(g14
g15
NtRp1081
(dp1082
g18
I1
sg19
I0
sg20
I99
sg21
I0
sg22
I0
sg23
I54
sg24
I0
sbssg25
S"Z\x10\x8f\xfa\xa3\x15G[\x9d\xb972'\xfe_\xbb"
p1083
ssS'_Users_michaelherman_Desktop_django-tastypie-tutorial_env_lib_python2_7_site-packages_django_core_files_storage'
p1084
(dp1085
g6
(dp1086
g8
S'_Users_michaelherman_Desktop_django-tastypie-tutorial_env_lib_python2_7_site-packages_django_core_files_storage.html'
p1087
sg10
S'/Users/michaelherman/Desktop/django-tastypie-tutorial/env/lib/python2.7/site-packages/django/core/files/storage'
p1088
sg12
g13
(g14
g15
NtRp1089
(dp1090
g18
I1
sg19
I0
sg20
I160
sg21
I0
sg22
I0
sg23
I111
sg24
I0
sbssg25
S'\xaf\xf3\x1f\xb1]\t{\x1b\x1eLf\xf4,\xfe\x06M'
p1091
ssS'_Users_michaelherman_Desktop_django-tastypie-tutorial_env_lib_python2_7_site-packages_django_contrib_messages_storage_cookie'
p1092
(dp1093
g197
(dp1094
g199
S'_Users_michaelherman_Desktop_django-tastypie-tutorial_env_lib_python2_7_site-packages_django_contrib_messages_storage_cookie.html'
p1095
sg201
S'/Users/michaelherman/Desktop/django-tastypie-tutorial/env/lib/python2.7/site-packages/django/contrib/messages/storage/cookie'
p1096
sg203
g13
(g14
g15
NtRp1097
(dp1098
g18
I1
sg19
I0
sg20
I83
sg21
I0
sg22
I0
sg23
I60
sg24
I0
sbssg206
S'\xc4x\xb5\xc9\xab\xd5\xa6y\xda\xa7\x1c\xb3%$z\x1c'
p1099
ssS'_Users_michaelherman_Desktop_django-tastypie-tutorial_env_lib_python2_7_site-packages_django_views_decorators_cache'
p1100
(dp1101
g6
(dp1102
g8
S'_Users_michaelherman_Desktop_django-tastypie-tutorial_env_lib_python2_7_site-packages_django_views_decorators_cache.html'
p1103
sg10
S'/Users/michaelherman/Desktop/django-tastypie-tutorial/env/lib/python2.7/site-packages/django/views/decorators/cache'
p1104
sg12
g13
(g14
g15
NtRp1105
(dp1106
g18
I1
sg19
I0
sg20
I40
sg21
I0
sg22
I0
sg23
I31
sg24
I0
sbssg25
S'\xb0\xf5\xb4nW\x13d\x8e\xb2\xe1*F\x18\x86\xc9g'
p1107
ssS'_Users_michaelherman_Desktop_django-tastypie-tutorial_env_lib_python2_7_site-packages_django_utils_timezone'
p1108
(dp1109
g6
(dp1110
g30
S'_Users_michaelherman_Desktop_django-tastypie-tutorial_env_lib_python2_7_site-packages_django_utils_timezone.html'
p1111
sg32
S'/Users/michaelherman/Desktop/django-tastypie-tutorial/env/lib/python2.7/site-packages/django/utils/timezone'
p1112
sg34
g13
(g14
g15
NtRp1113
(dp1114
g18
I1
sg19
I0
sg20
I114
sg21
I0
sg22
I0
sg23
I65
sg24
I0
sbssg25
S'\x16\x19\xfc#\xb1\xc7\xa7`\xc9\xa3\x90\x13U\xb2\xbb\x0b'
p1115
ssS'_Users_michaelherman_Desktop_django-tastypie-tutorial_env_lib_python2_7_site-packages_django_db_models_options'
p1116
(dp1117
g6
(dp1118
g8
S'_Users_michaelherman_Desktop_django-tastypie-tutorial_env_lib_python2_7_site-packages_django_db_models_options.html'
p1119
sg10
S'/Users/michaelherman/Desktop/django-tastypie-tutorial/env/lib/python2.7/site-packages/django/db/models/options'
p1120
sg12
g13
(g14
g15
NtRp1121
(dp1122
g18
I1
sg19
I0
sg20
I338
sg21
I0
sg22
I0
sg23
I85
sg24
I0
sbssg25
S'\x8f\xc6\rs5\x9d~\x1e\xf5\x036\xbaX\xbb\x98\x0c'
p1123
ssS'_Users_michaelherman_Desktop_django-tastypie-tutorial_env_lib_python2_7_site-packages_selenium_webdriver_firefox_firefox_profile'
p1124
(dp1125
g61
(dp1126
g63
S'_Users_michaelherman_Desktop_django-tastypie-tutorial_env_lib_python2_7_site-packages_selenium_webdriver_firefox_firefox_profile.html'
p1127
sg65
S'/Users/michaelherman/Desktop/django-tastypie-tutorial/env/lib/python2.7/site-packages/selenium/webdriver/firefox/firefox_profile'
p1128
sg67
g13
(g14
g15
NtRp1129
(dp1130
g18
I1
sg19
I0
sg20
I194
sg21
I0
sg22
I0
sg23
I71
sg24
I0
sbssg70
S'\xd5r\xd5\xb11Xjgz\xd0\x0f\x16\xb9\xcfZ\xda'
p1131
ssS'_Users_michaelherman_Desktop_django-tastypie-tutorial_env_lib_python2_7_site-packages_django_contrib_messages_storage_session'
p1132
(dp1133
g197
(dp1134
g199
S'_Users_michaelherman_Desktop_django-tastypie-tutorial_env_lib_python2_7_site-packages_django_contrib_messages_storage_session.html'
p1135
sg201
S'/Users/michaelherman/Desktop/django-tastypie-tutorial/env/lib/python2.7/site-packages/django/contrib/messages/storage/session'
p1136
sg203
g13
(g14
g15
NtRp1137
(dp1138
g18
I1
sg19
I0
sg20
I13
sg21
I0
sg22
I0
sg23
I5
sg24
I0
sbssg206
S'\xbdy\xe8[\xc0\xe2\x199\x99\x06%\x8f\xff[t5'
p1139
ssS'_Users_michaelherman_Desktop_django-tastypie-tutorial_env_lib_python2_7_site-packages_django_utils_numberformat'
p1140
(dp1141
g6
(dp1142
g8
S'_Users_michaelherman_Desktop_django-tastypie-tutorial_env_lib_python2_7_site-packages_django_utils_numberformat.html'
p1143
sg10
S'/Users/michaelherman/Desktop/django-tastypie-tutorial/env/lib/python2.7/site-packages/django/utils/numberformat'
p1144
sg12
g13
(g14
g15
NtRp1145
(dp1146
g18
I1
sg19
I0
sg20
I31
sg21
I0
sg22
I0
sg23
I27
sg24
I0
sbssg25
S'\xf0(3>w\xdbe\x8d\x05\x0e\x03\x13{\x0c\x8d/'
p1147
ssS'_Users_michaelherman_Desktop_django-tastypie-tutorial_env_lib_python2_7_site-packages_selenium_webdriver_chrome_webdriver'
p1148
(dp1149
g61
(dp1150
g63
S'_Users_michaelherman_Desktop_django-tastypie-tutorial_env_lib_python2_7_site-packages_selenium_webdriver_chrome_webdriver.html'
p1151
sg65
S'/Users/michaelherman/Desktop/django-tastypie-tutorial/env/lib/python2.7/site-packages/selenium/webdriver/chrome/webdriver'
p1152
sg67
g13
(g14
g15
NtRp1153
(dp1154
g18
I1
sg19
I0
sg20
I28
sg21
I0
sg22
I0
sg23
I19
sg24
I0
sbssg70
S'v\r\xbfe\x07\x17\xe7Ur\xa9\xde\xb1\xd0\xb9i\xe0'
p1155
ssS'_Users_michaelherman_Desktop_django-tastypie-tutorial_env_lib_python2_7_site-packages_south_utils___init__'
p1156
(dp1157
g6
(dp1158
g8
S'_Users_michaelherman_Desktop_django-tastypie-tutorial_env_lib_python2_7_site-packages_south_utils___init__.html'
p1159
sg10
S'/Users/michaelherman/Desktop/django-tastypie-tutorial/env/lib/python2.7/site-packages/south/utils/__init__'
p1160
sg12
g13
(g14
g15
NtRp1161
(dp1162
g18
I1
sg19
I0
sg20
I38
sg21
I0
sg22
I0
sg23
I12
sg24
I0
sbssg25
S'[\\A\x96\xa4!\x1c\x83Uf\xdd\x08H\x10g\xca'
p1163
ssS'_Users_michaelherman_Desktop_django-tastypie-tutorial_env_lib_python2_7_site-packages_django_utils_tzinfo'
p1164
(dp1165
g6
(dp1166
g8
S'_Users_michaelherman_Desktop_django-tastypie-tutorial_env_lib_python2_7_site-packages_django_utils_tzinfo.html'
p1167
sg10
S'/Users/michaelherman/Desktop/django-tastypie-tutorial/env/lib/python2.7/site-packages/django/utils/tzinfo'
p1168
sg12
g13
(g14
g15
NtRp1169
(dp1170
g18
I1
sg19
I0
sg20
I53
sg21
I0
sg22
I0
sg23
I34
sg24
I0
sbssg25
S'o\xd9[\xd8\xee.\xb3U\x02\x1aM~!Ug\x83'
p1171
ssS'_Users_michaelherman_Desktop_django-tastypie-tutorial_env_lib_python2_7_site-packages_tastypie_exceptions'
p1172
(dp1173
g197
(dp1174
g199
S'_Users_michaelherman_Desktop_django-tastypie-tutorial_env_lib_python2_7_site-packages_tastypie_exceptions.html'
p1175
sg201
S'/Users/michaelherman/Desktop/django-tastypie-tutorial/env/lib/python2.7/site-packages/tastypie/exceptions'
p1176
sg203
g13
(g14
g15
NtRp1177
(dp1178
g18
I1
sg19
I0
sg20
I29
sg21
I0
sg22
I0
sg23
I2
sg24
I0
sbssg206
S'\x0e-\x93\x91*\xa1\x8f\x00\x14\xb1p\xe8\xc3\xc8\x97\x9d'
p1179
ssS'_Users_michaelherman_Desktop_django-tastypie-tutorial_env_lib_python2_7_site-packages_django_utils_termcolors'
p1180
(dp1181
g6
(dp1182
g8
S'_Users_michaelherman_Desktop_django-tastypie-tutorial_env_lib_python2_7_site-packages_django_utils_termcolors.html'
p1183
sg10
S'/Users/michaelherman/Desktop/django-tastypie-tutorial/env/lib/python2.7/site-packages/django/utils/termcolors'
p1184
sg12
g13
(g14
g15
NtRp1185
(dp1186
g18
I1
sg19
I0
sg20
I57
sg21
I0
sg22
I0
sg23
I40
sg24
I0
sbssg25
S'\x18\xc6\x8a\x88E\xa6\x84\xafY\xd5$\x88@\x9c\xf2\xaf'
p1187
ssS'_Users_michaelherman_Desktop_django-tastypie-tutorial_env_lib_python2_7_site-packages_django_db___init__'
p1188
(dp1189
g6
(dp1190
g30
S'_Users_michaelherman_Desktop_django-tastypie-tutorial_env_lib_python2_7_site-packages_django_db___init__.html'
p1191
sg32
S'/Users/michaelherman/Desktop/django-tastypie-tutorial/env/lib/python2.7/site-packages/django/db/__init__'
p1192
sg34
g13
(g14
g15
NtRp1193
(dp1194
g18
I1
sg19
I0
sg20
I34
sg21
I0
sg22
I0
sg23
I14
sg24
I0
sbssg25
S'%\x16\xef\xa0\xab\x87\xe7\x9c[\x0f\x90\x13\xd0\x89X|'
p1195
ssS'_Users_michaelherman_Desktop_django-tastypie-tutorial_env_lib_python2_7_site-packages_django_contrib_staticfiles_templatetags_staticfiles'
p1196
(dp1197
g6
(dp1198
g8
S'_Users_michaelherman_Desktop_django-tastypie-tutorial_env_lib_python2_7_site-packages_django_contrib_staticfiles_templatetags_staticfiles.html'
p1199
sg10
S'/Users/michaelherman/Desktop/django-tastypie-tutorial/env/lib/python2.7/site-packages/django/contrib/staticfiles/templatetags/staticfiles'
p1200
sg12
g13
(g14
g15
NtRp1201
(dp1202
g18
I1
sg19
I0
sg20
I12
sg21
I0
sg22
I0
sg23
I4
sg24
I0
sbssg25
S'\xb3\x88\x8a.\xc4/\x07\xb14\x17\xe9\xbe\xf5\xfc\xde\xe9'
p1203
ssS'whatever___init__'
p1204
(dp1205
g6
(dp1206
g8
S'whatever___init__.html'
p1207
sg10
S'whatever/__init__'
p1208
sg12
g13
(g14
g15
NtRp1209
(dp1210
g18
I1
sg19
I0
sg20
I0
sg21
I0
sg22
I0
sg23
I0
sg24
I0
sbssg25
S'\xb0\xc8pN\xaf>\xa0\xbaz\x144\xe0A9\xb8?'
p1211
ssS'_Users_michaelherman_Desktop_django-tastypie-tutorial_env_lib_python2_7_site-packages_django_contrib_messages_middleware'
p1212
(dp1213
g197
(dp1214
g199
S'_Users_michaelherman_Desktop_django-tastypie-tutorial_env_lib_python2_7_site-packages_django_contrib_messages_middleware.html'
p1215
sg201
S'/Users/michaelherman/Desktop/django-tastypie-tutorial/env/lib/python2.7/site-packages/django/contrib/messages/middleware'
p1216
sg203
g13
(g14
g15
NtRp1217
(dp1218
g18
I1
sg19
I0
sg20
I11
sg21
I0
sg22
I0
sg23
I1
sg24
I0
sbssg206
S'Ck\x91\x91\x8c\xffq\xa6?\x04\x83\xb5Q\x8eJ\xca'
p1219
ssS'_Users_michaelherman_Desktop_django-tastypie-tutorial_env_lib_python2_7_site-packages_dateutil_tzwin'
p1220
(dp1221
g197
(dp1222
g199
S'_Users_michaelherman_Desktop_django-tastypie-tutorial_env_lib_python2_7_site-packages_dateutil_tzwin.html'
p1223
sg201
S'/Users/michaelherman/Desktop/django-tastypie-tutorial/env/lib/python2.7/site-packages/dateutil/tzwin'
p1224
sg203
g13
(g14
g15
NtRp1225
(dp1226
g18
I1
sg19
I0
sg20
I105
sg21
I0
sg22
I0
sg23
I102
sg24
I0
sbssg206
S':\xd0\xe7\xe5\xd6\xb0\xf4j:\x19]H^\xd9u\xa2'
p1227
ssS'_Users_michaelherman_Desktop_django-tastypie-tutorial_env_lib_python2_7_site-packages_six'
p1228
(dp1229
g197
(dp1230
g199
S'_Users_michaelherman_Desktop_django-tastypie-tutorial_env_lib_python2_7_site-packages_six.html'
p1231
sg201
S'/Users/michaelherman/Desktop/django-tastypie-tutorial/env/lib/python2.7/site-packages/six'
p1232
sg203
g13
(g14
g15
NtRp1233
(dp1234
g18
I1
sg19
I0
sg20
I230
sg21
I0
sg22
I0
sg23
I127
sg24
I0
sbssg206
S'\xa4\xd6\xa0a1),3~e\t/\x03\xd1\x96y'
p1235
ssS'_Users_michaelherman_Desktop_django-tastypie-tutorial_env_lib_python2_7_site-packages_django_utils_version'
p1236
(dp1237
g6
(dp1238
g8
S'_Users_michaelherman_Desktop_django-tastypie-tutorial_env_lib_python2_7_site-packages_django_utils_version.html'
p1239
sg10
S'/Users/michaelherman/Desktop/django-tastypie-tutorial/env/lib/python2.7/site-packages/django/utils/version'
p1240
sg12
g13
(g14
g15
NtRp1241
(dp1242
g18
I1
sg19
I0
sg20
I29
sg21
I0
sg22
I0
sg23
I15
sg24
I0
sbssg25
S'\xba\xcb\xe5|\x18\xbcUd\xd6q\x19\xc9p-\xb6\xb2'
p1243
ssS'_Users_michaelherman_Desktop_django-tastypie-tutorial_env_lib_python2_7_site-packages_django_contrib_sites___init__'
p1244
(dp1245
g6
(dp1246
g8
S'_Users_michaelherman_Desktop_django-tastypie-tutorial_env_lib_python2_7_site-packages_django_contrib_sites___init__.html'
p1247
sg10
S'/Users/michaelherman/Desktop/django-tastypie-tutorial/env/lib/python2.7/site-packages/django/contrib/sites/__init__'
p1248
sg12
g13
(g14
g15
NtRp1249
(dp1250
g18
I1
sg19
I0
sg20
I0
sg21
I0
sg22
I0
sg23
I0
sg24
I0
sbssg25
S'\xb0\xc8pN\xaf>\xa0\xbaz\x144\xe0A9\xb8?'
p1251
ssS'_Users_michaelherman_Desktop_django-tastypie-tutorial_env_lib_python2_7_site-packages_django_test_html'
p1252
(dp1253
g6
(dp1254
g8
S'_Users_michaelherman_Desktop_django-tastypie-tutorial_env_lib_python2_7_site-packages_django_test_html.html'
p1255
sg10
S'/Users/michaelherman/Desktop/django-tastypie-tutorial/env/lib/python2.7/site-packages/django/test/html'
p1256
sg12
g13
(g14
g15
NtRp1257
(dp1258
g18
I1
sg19
I0
sg20
I167
sg21
I0
sg22
I0
sg23
I128
sg24
I0
sbssg25
S"E,s\x9c'6BR\x8c\x0cj\x1e\xb5\xb64\x89"
p1259
ssS'_Users_michaelherman_Desktop_django-tastypie-tutorial_env_lib_python2_7_site-packages_model_mommy___init__'
p1260
(dp1261
g628
(dp1262
g99
S'_Users_michaelherman_Desktop_django-tastypie-tutorial_env_lib_python2_7_site-packages_model_mommy___init__.html'
p1263
sg101
S'/Users/michaelherman/Desktop/django-tastypie-tutorial/env/lib/python2.7/site-packages/model_mommy/__init__'
p1264
sg103
g13
(g14
g15
NtRp1265
(dp1266
g18
I1
sg19
I0
sg20
I4
sg21
I0
sg22
I0
sg23
I0
sg24
I0
sbssg634
S'\x867&\x994\x8ba\xcfNnw\nz\n\xfbl'
p1267
ssS'_Users_michaelherman_Desktop_django-tastypie-tutorial_env_lib_python2_7_site-packages_django_core_wsgi'
p1268
(dp1269
g6
(dp1270
g8
S'_Users_michaelherman_Desktop_django-tastypie-tutorial_env_lib_python2_7_site-packages_django_core_wsgi.html'
p1271
sg10
S'/Users/michaelherman/Desktop/django-tastypie-tutorial/env/lib/python2.7/site-packages/django/core/wsgi'
p1272
sg12
g13
(g14
g15
NtRp1273
(dp1274
g18
I1
sg19
I0
sg20
I3
sg21
I0
sg22
I0
sg23
I1
sg24
I0
sbssg25
S' \x0e\x1b\xd1D\xd0\x13<c\x84?v\xdf\xd1\xf8\x84'
p1275
ssS'_Users_michaelherman_Desktop_django-tastypie-tutorial_env_lib_python2_7_site-packages_django_core_management_commands___init__'
p1276
(dp1277
g6
(dp1278
g8
S'_Users_michaelherman_Desktop_django-tastypie-tutorial_env_lib_python2_7_site-packages_django_core_management_commands___init__.html'
p1279
sg10
S'/Users/michaelherman/Desktop/django-tastypie-tutorial/env/lib/python2.7/site-packages/django/core/management/commands/__init__'
p1280
sg12
g13
(g14
g15
NtRp1281
(dp1282
g18
I1
sg19
I0
sg20
I0
sg21
I0
sg22
I0
sg23
I0
sg24
I0
sbssg25
S'\xb0\xc8pN\xaf>\xa0\xbaz\x144\xe0A9\xb8?'
p1283
ssS'_Users_michaelherman_Desktop_django-tastypie-tutorial_env_lib_python2_7_site-packages_django_db_models_fields_subclassing'
p1284
(dp1285
g6
(dp1286
g8
S'_Users_michaelherman_Desktop_django-tastypie-tutorial_env_lib_python2_7_site-packages_django_db_models_fields_subclassing.html'
p1287
sg10
S'/Users/michaelherman/Desktop/django-tastypie-tutorial/env/lib/python2.7/site-packages/django/db/models/fields/subclassing'
p1288
sg12
g13
(g14
g15
NtRp1289
(dp1290
g18
I1
sg19
I0
sg20
I21
sg21
I0
sg22
I0
sg23
I14
sg24
I0
sbssg25
S' \xc8$\x1a\xca\xc6\xb9\n\xaew\xc3>\x8ej\x81b'
p1291
ssS'_Users_michaelherman_Desktop_django-tastypie-tutorial_env_lib_python2_7_site-packages_django_middleware_common'
p1292
(dp1293
g197
(dp1294
g199
S'_Users_michaelherman_Desktop_django-tastypie-tutorial_env_lib_python2_7_site-packages_django_middleware_common.html'
p1295
sg201
S'/Users/michaelherman/Desktop/django-tastypie-tutorial/env/lib/python2.7/site-packages/django/middleware/common'
p1296
sg203
g13
(g14
g15
NtRp1297
(dp1298
g18
I1
sg19
I0
sg20
I82
sg21
I0
sg22
I0
sg23
I56
sg24
I0
sbssg206
S'\xfe%\xa8\xa8\xd4\x8a=\xd4\xc0\xf3\xc1\xe2\t\xe4\xec\x1c'
p1299
ssS'_Users_michaelherman_Desktop_django-tastypie-tutorial_env_lib_python2_7_site-packages_tastypie_bundle'
p1300
(dp1301
g197
(dp1302
g99
S'_Users_michaelherman_Desktop_django-tastypie-tutorial_env_lib_python2_7_site-packages_tastypie_bundle.html'
p1303
sg101
S'/Users/michaelherman/Desktop/django-tastypie-tutorial/env/lib/python2.7/site-packages/tastypie/bundle'
p1304
sg103
g13
(g14
g15
NtRp1305
(dp1306
g18
I1
sg19
I0
sg20
I13
sg21
I0
sg22
I0
sg23
I1
sg24
I0
sbssg206
S'\xe3\xb8Rb\x07B\xb0\xbd\xfb\xac\x8d\n\x06r0\x8d'
p1307
ssS'_Users_michaelherman_Desktop_django-tastypie-tutorial_env_lib_python2_7_site-packages_django_core_files_utils'
p1308
(dp1309
g6
(dp1310
g8
S'_Users_michaelherman_Desktop_django-tastypie-tutorial_env_lib_python2_7_site-packages_django_core_files_utils.html'
p1311
sg10
S'/Users/michaelherman/Desktop/django-tastypie-tutorial/env/lib/python2.7/site-packages/django/core/files/utils'
p1312
sg12
g13
(g14
g15
NtRp1313
(dp1314
g18
I1
sg19
I0
sg20
I19
sg21
I0
sg22
I0
sg23
I1
sg24
I0
sbssg25
S'\x91@)\xe4(\x81\xd6\xb8\x9b\x16\xc4\xeeh\x11e\xff'
p1315
ssS'_Users_michaelherman_Desktop_django-tastypie-tutorial_env_lib_python2_7_site-packages_django_contrib_sessions_backends___init__'
p1316
(dp1317
g6
(dp1318
g8
S'_Users_michaelherman_Desktop_django-tastypie-tutorial_env_lib_python2_7_site-packages_django_contrib_sessions_backends___init__.html'
p1319
sg10
S'/Users/michaelherman/Desktop/django-tastypie-tutorial/env/lib/python2.7/site-packages/django/contrib/sessions/backends/__init__'
p1320
sg12
g13
(g14
g15
NtRp1321
(dp1322
g18
I1
sg19
I0
sg20
I0
sg21
I0
sg22
I0
sg23
I0
sg24
I0
sbssg25
S'\xb0\xc8pN\xaf>\xa0\xbaz\x144\xe0A9\xb8?'
p1323
ssS'_Users_michaelherman_Desktop_django-tastypie-tutorial_env_lib_python2_7_site-packages_django_db_backends_sqlite3_client'
p1324
(dp1325
g6
(dp1326
g8
S'_Users_michaelherman_Desktop_django-tastypie-tutorial_env_lib_python2_7_site-packages_django_db_backends_sqlite3_client.html'
p1327
sg10
S'/Users/michaelherman/Desktop/django-tastypie-tutorial/env/lib/python2.7/site-packages/django/db/backends/sqlite3/client'
p1328
sg12
g13
(g14
g15
NtRp1329
(dp1330
g18
I1
sg19
I0
sg20
I10
sg21
I0
sg22
I0
sg23
I4
sg24
I0
sbssg25
S'\xc1M\xc7\x1f ySpt\x02\xcb\x82\xbeT\x1c\xaa'
p1331
ssS'_Users_michaelherman_Desktop_django-tastypie-tutorial_env_lib_python2_7_site-packages_model_mommy_exceptions'
p1332
(dp1333
g628
(dp1334
g99
S'_Users_michaelherman_Desktop_django-tastypie-tutorial_env_lib_python2_7_site-packages_model_mommy_exceptions.html'
p1335
sg101
S'/Users/michaelherman/Desktop/django-tastypie-tutorial/env/lib/python2.7/site-packages/model_mommy/exceptions'
p1336
sg103
g13
(g14
g15
NtRp1337
(dp1338
g18
I1
sg19
I0
sg20
I8
sg21
I0
sg22
I0
sg23
I0
sg24
I0
sbssg634
S'\x11\x1cKY"\xa9\xf4u^\x85\x80\t+\x0bT>'
p1339
ssS'_Users_michaelherman_Desktop_django-tastypie-tutorial_env_lib_python2_7_site-packages_django_contrib_staticfiles_views'
p1340
(dp1341
g6
(dp1342
g8
S'_Users_michaelherman_Desktop_django-tastypie-tutorial_env_lib_python2_7_site-packages_django_contrib_staticfiles_views.html'
p1343
sg10
S'/Users/michaelherman/Desktop/django-tastypie-tutorial/env/lib/python2.7/site-packages/django/contrib/staticfiles/views'
p1344
sg12
g13
(g14
g15
NtRp1345
(dp1346
g18
I1
sg19
I0
sg20
I22
sg21
I0
sg22
I0
sg23
I10
sg24
I0
sbssg25
S'\xdf\x8em,\x98CRFQ\x89$\xf4\x0e\xb5A\x1b'
p1347
ssS'_Users_michaelherman_Desktop_django-tastypie-tutorial_env_lib_python2_7_site-packages_tastypie_utils_timezone'
p1348
(dp1349
g197
(dp1350
g199
S'_Users_michaelherman_Desktop_django-tastypie-tutorial_env_lib_python2_7_site-packages_tastypie_utils_timezone.html'
p1351
sg201
S'/Users/michaelherman/Desktop/django-tastypie-tutorial/env/lib/python2.7/site-packages/tastypie/utils/timezone'
p1352
sg203
g13
(g14
g15
NtRp1353
(dp1354
g18
I1
sg19
I0
sg20
I23
sg21
I0
sg22
I0
sg23
I14
sg24
I0
sbssg206
S'u\xe9$\x95\xa4N\xf5{\x0f\x97\xcc\xa9\xf6bM\xd8'
p1355
ssS'_Users_michaelherman_Desktop_django-tastypie-tutorial_env_lib_python2_7_site-packages_django_contrib_sites_management'
p1356
(dp1357
g6
(dp1358
g8
S'_Users_michaelherman_Desktop_django-tastypie-tutorial_env_lib_python2_7_site-packages_django_contrib_sites_management.html'
p1359
sg10
S'/Users/michaelherman/Desktop/django-tastypie-tutorial/env/lib/python2.7/site-packages/django/contrib/sites/management'
p1360
sg12
g13
(g14
g15
NtRp1361
(dp1362
g18
I1
sg19
I0
sg20
I20
sg21
I0
sg22
I0
sg23
I6
sg24
I0
sbssg25
S'\x7f\x8f\xcc,g\x17\xed\xc1V\xdb\xd7e3\xe5\xe6\xca'
p1363
ssS'_Users_michaelherman_Desktop_django-tastypie-tutorial_env_lib_python2_7_site-packages_django_utils_translation_trans_real'
p1364
(dp1365
g6
(dp1366
g8
S'_Users_michaelherman_Desktop_django-tastypie-tutorial_env_lib_python2_7_site-packages_django_utils_translation_trans_real.html'
p1367
sg10
S'/Users/michaelherman/Desktop/django-tastypie-tutorial/env/lib/python2.7/site-packages/django/utils/translation/trans_real'
p1368
sg12
g13
(g14
g15
NtRp1369
(dp1370
g18
I1
sg19
I0
sg20
I366
sg21
I0
sg22
I0
sg23
I228
sg24
I0
sbssg25
S'\xf9\xb1\xd8\xde;\t\xb8[Z(\x15\xa3?(\xf1\xcb'
p1371
ssS'django15_settings'
p1372
(dp1373
g6
(dp1374
g99
S'django15_settings.html'
p1375
sg101
S'django15/settings'
p1376
sg103
g13
(g14
g15
NtRp1377
(dp1378
g18
I1
sg19
I0
sg20
I29
sg21
I0
sg22
I0
sg23
I0
sg24
I0
sbssg25
S'\xa6\xe3\x9d\xe6H\x07\x1c>\x896b\xef\xa2\x87\xbcA'
p1379
ssS'_Users_michaelherman_Desktop_django-tastypie-tutorial_env_lib_python2_7_site-packages_django_test__doctest'
p1380
(dp1381
g6
(dp1382
g30
S'_Users_michaelherman_Desktop_django-tastypie-tutorial_env_lib_python2_7_site-packages_django_test__doctest.html'
p1383
sg32
S'/Users/michaelherman/Desktop/django-tastypie-tutorial/env/lib/python2.7/site-packages/django/test/_doctest'
p1384
sg34
g13
(g14
g15
NtRp1385
(dp1386
g18
I1
sg19
I0
sg20
I944
sg21
I0
sg22
I0
sg23
I673
sg24
I0
sbssg25
S'5I\xf7\xca\x01k\x8c\xc02*\x93$V*\xf30'
p1387
ssS'_Users_michaelherman_Desktop_django-tastypie-tutorial_env_lib_python2_7_site-packages_tastypie_resources'
p1388
(dp1389
g197
(dp1390
g99
S'_Users_michaelherman_Desktop_django-tastypie-tutorial_env_lib_python2_7_site-packages_tastypie_resources.html'
p1391
sg101
S'/Users/michaelherman/Desktop/django-tastypie-tutorial/env/lib/python2.7/site-packages/tastypie/resources'
p1392
sg103
g13
(g14
g15
NtRp1393
(dp1394
g18
I1
sg19
I0
sg20
I1122
sg21
I0
sg22
I0
sg23
I724
sg24
I0
sbssg206
S"\xa2\xcf\x92'\xdf<\x01\x18\xd4\xaa\xee\xc8\x9b\x9e\xee\n"
p1395
ssS'_Users_michaelherman_Desktop_django-tastypie-tutorial_env_lib_python2_7_site-packages_django_test_testcases'
p1396
(dp1397
g6
(dp1398
g419
S'_Users_michaelherman_Desktop_django-tastypie-tutorial_env_lib_python2_7_site-packages_django_test_testcases.html'
p1399
sg421
S'/Users/michaelherman/Desktop/django-tastypie-tutorial/env/lib/python2.7/site-packages/django/test/testcases'
p1400
sg423
g13
(g14
g15
NtRp1401
(dp1402
g18
I1
sg19
I0
sg20
I602
sg21
I0
sg22
I0
sg23
I410
sg24
I0
sbssg25
S'tP\xd4G\xe1\x16\x08\xeb_\xc5%\xbf\xc8\xc3\xfd\xd6'
p1403
ssS'_Users_michaelherman_Desktop_django-tastypie-tutorial_env_lib_python2_7_site-packages_django_template_loader_tags'
p1404
(dp1405
g6
(dp1406
g30
S'_Users_michaelherman_Desktop_django-tastypie-tutorial_env_lib_python2_7_site-packages_django_template_loader_tags.html'
p1407
sg32
S'/Users/michaelherman/Desktop/django-tastypie-tutorial/env/lib/python2.7/site-packages/django/template/loader_tags'
p1408
sg34
g13
(g14
g15
NtRp1409
(dp1410
g18
I1
sg19
I0
sg20
I178
sg21
I0
sg22
I0
sg23
I140
sg24
I0
sbssg25
S'\xc0\xc1V\x98\x98\xde\xa2\xe1\t\x9e\xe0o\xc7\x94\xd0\x0c'
p1411
ssS'_Users_michaelherman_Desktop_django-tastypie-tutorial_env_lib_python2_7_site-packages_django_contrib_staticfiles_handlers'
p1412
(dp1413
g6
(dp1414
g8
S'_Users_michaelherman_Desktop_django-tastypie-tutorial_env_lib_python2_7_site-packages_django_contrib_staticfiles_handlers.html'
p1415
sg10
S'/Users/michaelherman/Desktop/django-tastypie-tutorial/env/lib/python2.7/site-packages/django/contrib/staticfiles/handlers'
p1416
sg12
g13
(g14
g15
NtRp1417
(dp1418
g18
I1
sg19
I0
sg20
I45
sg21
I0
sg22
I0
sg23
I26
sg24
I0
sbssg25
S"\x91'\x19\xf0H\xe9n\xb6\xf4\xb7j\xe8\x82I_]"
p1419
ssS'_Users_michaelherman_Desktop_django-tastypie-tutorial_env_lib_python2_7_site-packages_django_core_files___init__'
p1420
(dp1421
g6
(dp1422
g8
S'_Users_michaelherman_Desktop_django-tastypie-tutorial_env_lib_python2_7_site-packages_django_core_files___init__.html'
p1423
sg10
S'/Users/michaelherman/Desktop/django-tastypie-tutorial/env/lib/python2.7/site-packages/django/core/files/__init__'
p1424
sg12
g13
(g14
g15
NtRp1425
(dp1426
g18
I1
sg19
I0
sg20
I1
sg21
I0
sg22
I0
sg23
I0
sg24
I0
sbssg25
S"\xa1\xbfiA'\x85B\x1e\xd8\xe0\x91\xe3\xf7\x86\x81\xb2"
p1427
ssS'whatever_views'
p1428
(dp1429
g197
(dp1430
g199
S'whatever_views.html'
p1431
sg201
S'whatever/views'
p1432
sg203
g13
(g14
g15
NtRp1433
(dp1434
g18
I1
sg19
I0
sg20
I22
sg21
I0
sg22
I0
sg23
I10
sg24
I0
sbssg206
S'os\x83@@\x8b\xa7\xe6\x1b~\xb91\xab\xca\xe7i'
p1435
ssS'_Users_michaelherman_Desktop_django-tastypie-tutorial_env_lib_python2_7_site-packages_south_utils_py3'
p1436
(dp1437
g6
(dp1438
g8
S'_Users_michaelherman_Desktop_django-tastypie-tutorial_env_lib_python2_7_site-packages_south_utils_py3.html'
p1439
sg10
S'/Users/michaelherman/Desktop/django-tastypie-tutorial/env/lib/python2.7/site-packages/south/utils/py3'
p1440
sg12
g13
(g14
g15
NtRp1441
(dp1442
g18
I1
sg19
I0
sg20
I11
sg21
I0
sg22
I0
sg23
I3
sg24
I0
sbssg25
S'4\xef\x05\x08\x00\xbapYn\xecIN\x96:U\xc5'
p1443
ssS'_Users_michaelherman_Desktop_django-tastypie-tutorial_env_lib_python2_7_site-packages_django_core_paginator'
p1444
(dp1445
g6
(dp1446
g8
S'_Users_michaelherman_Desktop_django-tastypie-tutorial_env_lib_python2_7_site-packages_django_core_paginator.html'
p1447
sg10
S'/Users/michaelherman/Desktop/django-tastypie-tutorial/env/lib/python2.7/site-packages/django/core/paginator'
p1448
sg12
g13
(g14
g15
NtRp1449
(dp1450
g18
I1
sg19
I0
sg20
I106
sg21
I0
sg22
I0
sg23
I71
sg24
I0
sbssg25
S'\xa2\x9f\x8e\xe5\x07, \x0e\xf9\x106\x95\xfb\xdcs\xe8'
p1451
ssS'_Users_michaelherman_Desktop_django-tastypie-tutorial_env_lib_python2_7_site-packages_selenium_webdriver_common_utils'
p1452
(dp1453
g61
(dp1454
g63
S'_Users_michaelherman_Desktop_django-tastypie-tutorial_env_lib_python2_7_site-packages_selenium_webdriver_common_utils.html'
p1455
sg65
S'/Users/michaelherman/Desktop/django-tastypie-tutorial/env/lib/python2.7/site-packages/selenium/webdriver/common/utils'
p1456
sg67
g13
(g14
g15
NtRp1457
(dp1458
g18
I1
sg19
I0
sg20
I29
sg21
I0
sg22
I0
sg23
I11
sg24
I0
sbssg70
S's\xcct\x02\xda\xba\xc6>B\xb1Z\x1d\xc2\x04:\xd9'
p1459
ssS'_Users_michaelherman_Desktop_django-tastypie-tutorial_env_lib_python2_7_site-packages_django_db_backends_sqlite3_creation'
p1460
(dp1461
g6
(dp1462
g8
S'_Users_michaelherman_Desktop_django-tastypie-tutorial_env_lib_python2_7_site-packages_django_db_backends_sqlite3_creation.html'
p1463
sg10
S'/Users/michaelherman/Desktop/django-tastypie-tutorial/env/lib/python2.7/site-packages/django/db/backends/sqlite3/creation'
p1464
sg12
g13
(g14
g15
NtRp1465
(dp1466
g18
I1
sg19
I0
sg20
I44
sg21
I0
sg22
I0
sg23
I17
sg24
I0
sbssg25
S'2\x88\xb6dx-\x8c"\xb8C\xd8=|x\xbf\x1f'
p1467
ssS'_Users_michaelherman_Desktop_django-tastypie-tutorial_env_lib_python2_7_site-packages_django_contrib_sessions_models'
p1468
(dp1469
g6
(dp1470
g8
S'_Users_michaelherman_Desktop_django-tastypie-tutorial_env_lib_python2_7_site-packages_django_contrib_sessions_models.html'
p1471
sg10
S'/Users/michaelherman/Desktop/django-tastypie-tutorial/env/lib/python2.7/site-packages/django/contrib/sessions/models'
p1472
sg12
g13
(g14
g15
NtRp1473
(dp1474
g18
I1
sg19
I0
sg20
I23
sg21
I0
sg22
I0
sg23
I7
sg24
I0
sbssg25
S'< \xef\x96\xa0\x8c\xd8\xe9~\n\xbb7\xe7U\xf3['
p1475
ssS'_Users_michaelherman_Desktop_django-tastypie-tutorial_env_lib_python2_7_site-packages_django_core_cache_backends_db'
p1476
(dp1477
g6
(dp1478
g8
S'_Users_michaelherman_Desktop_django-tastypie-tutorial_env_lib_python2_7_site-packages_django_core_cache_backends_db.html'
p1479
sg10
S'/Users/michaelherman/Desktop/django-tastypie-tutorial/env/lib/python2.7/site-packages/django/core/cache/backends/db'
p1480
sg12
g13
(g14
g15
NtRp1481
(dp1482
g18
I1
sg19
I0
sg20
I128
sg21
I0
sg22
I0
sg23
I103
sg24
I0
sbssg25
S'\x18Sqc@\x84\x05\x07\xfd"h\x9e\xf4\xb3\xbfp'
p1483
ssS'_Users_michaelherman_Desktop_django-tastypie-tutorial_env_lib_python2_7_site-packages_selenium_webdriver_common_by'
p1484
(dp1485
g61
(dp1486
g63
S'_Users_michaelherman_Desktop_django-tastypie-tutorial_env_lib_python2_7_site-packages_selenium_webdriver_common_by.html'
p1487
sg65
S'/Users/michaelherman/Desktop/django-tastypie-tutorial/env/lib/python2.7/site-packages/selenium/webdriver/common/by'
p1488
sg67
g13
(g14
g15
NtRp1489
(dp1490
g18
I1
sg19
I0
sg20
I9
sg21
I0
sg22
I0
sg23
I0
sg24
I0
sbssg70
S'\xab+\x15\xf4\xe0\xc4\xfbM\xbe/G\xdc\xb0ne\x8c'
p1491
ssS'_Users_michaelherman_Desktop_django-tastypie-tutorial_env_lib_python2_7_site-packages_model_mommy_timezone'
p1492
(dp1493
g628
(dp1494
g99
S'_Users_michaelherman_Desktop_django-tastypie-tutorial_env_lib_python2_7_site-packages_model_mommy_timezone.html'
p1495
sg101
S'/Users/michaelherman/Desktop/django-tastypie-tutorial/env/lib/python2.7/site-packages/model_mommy/timezone'
p1496
sg103
g13
(g14
g15
NtRp1497
(dp1498
g18
I1
sg19
I0
sg20
I13
sg21
I0
sg22
I0
sg23
I6
sg24
I0
sbssg634
S'\x84\xc60\xf7\xa2P\x0e\x04\xebt\xdaZ!\xf9U\x7f'
p1499
ssS'_Users_michaelherman_Desktop_django-tastypie-tutorial_env_lib_python2_7_site-packages_django_core_management_commands_loaddata'
p1500
(dp1501
g6
(dp1502
g8
S'_Users_michaelherman_Desktop_django-tastypie-tutorial_env_lib_python2_7_site-packages_django_core_management_commands_loaddata.html'
p1503
sg10
S'/Users/michaelherman/Desktop/django-tastypie-tutorial/env/lib/python2.7/site-packages/django/core/management/commands/loaddata'
p1504
sg12
g13
(g14
g15
NtRp1505
(dp1506
g18
I1
sg19
I0
sg20
I157
sg21
I0
sg22
I0
sg23
I133
sg24
I0
sbssg25
S'\xa5\xe2.\xa5\x10\x8d\x1a\xec\xb7\xa1\x8ez\xaa\x912\x17'
p1507
ssS'_Users_michaelherman_Desktop_django-tastypie-tutorial_env_lib_python2_7_site-packages_south_db___init__'
p1508
(dp1509
g6
(dp1510
g8
S'_Users_michaelherman_Desktop_django-tastypie-tutorial_env_lib_python2_7_site-packages_south_db___init__.html'
p1511
sg10
S'/Users/michaelherman/Desktop/django-tastypie-tutorial/env/lib/python2.7/site-packages/south/db/__init__'
p1512
sg12
g13
(g14
g15
NtRp1513
(dp1514
g18
I1
sg19
I0
sg20
I24
sg21
I0
sg22
I0
sg23
I9
sg24
I0
sbssg25
S'\xc5\tw1\x8f\xa9W\xa4E\x14\x88\xd2^\xa7O\xc7'
p1515
ssS'_Users_michaelherman_Desktop_django-tastypie-tutorial_env_lib_python2_7_site-packages_tastypie_utils_dict'
p1516
(dp1517
g197
(dp1518
g99
S'_Users_michaelherman_Desktop_django-tastypie-tutorial_env_lib_python2_7_site-packages_tastypie_utils_dict.html'
p1519
sg101
S'/Users/michaelherman/Desktop/django-tastypie-tutorial/env/lib/python2.7/site-packages/tastypie/utils/dict'
p1520
sg103
g13
(g14
g15
NtRp1521
(dp1522
g18
I1
sg19
I0
sg20
I5
sg21
I0
sg22
I0
sg23
I1
sg24
I0
sbssg206
S'?\x1b9+\xd4\xe5A\xdfYs\x80\n\x9b\xf2\xbc/'
p1523
ssS'_Users_michaelherman_Desktop_django-tastypie-tutorial_env_lib_python2_7_site-packages_django_template_loaders_app_directories'
p1524
(dp1525
g6
(dp1526
g8
S'_Users_michaelherman_Desktop_django-tastypie-tutorial_env_lib_python2_7_site-packages_django_template_loaders_app_directories.html'
p1527
sg10
S'/Users/michaelherman/Desktop/django-tastypie-tutorial/env/lib/python2.7/site-packages/django/template/loaders/app_directories'
p1528
sg12
g13
(g14
g15
NtRp1529
(dp1530
g18
I1
sg19
I0
sg20
I43
sg21
I0
sg22
I0
sg23
I18
sg24
I0
sbssg25
S'K\x0fGn\x19\xcb\xad\xcat\xdc"\x9c\x04\x1f~\x8f'
p1531
ssS'_Users_michaelherman_Desktop_django-tastypie-tutorial_env_lib_python2_7_site-packages_selenium_webdriver_ie___init__'
p1532
(dp1533
g61
(dp1534
g63
S'_Users_michaelherman_Desktop_django-tastypie-tutorial_env_lib_python2_7_site-packages_selenium_webdriver_ie___init__.html'
p1535
sg65
S'/Users/michaelherman/Desktop/django-tastypie-tutorial/env/lib/python2.7/site-packages/selenium/webdriver/ie/__init__'
p1536
sg67
g13
(g14
g15
NtRp1537
(dp1538
g18
I1
sg19
I0
sg20
I0
sg21
I0
sg22
I0
sg23
I0
sg24
I0
sbssg70
S'\xe2\x8a\x1a\xd9>\xfb\\0\x12\xd5#I\xb4\x0bk\xab'
p1539
ssS'_Users_michaelherman_Desktop_django-tastypie-tutorial_env_lib_python2_7_site-packages_django_utils_itercompat'
p1540
(dp1541
g6
(dp1542
g8
S'_Users_michaelherman_Desktop_django-tastypie-tutorial_env_lib_python2_7_site-packages_django_utils_itercompat.html'
p1543
sg10
S'/Users/michaelherman/Desktop/django-tastypie-tutorial/env/lib/python2.7/site-packages/django/utils/itercompat'
p1544
sg12
g13
(g14
g15
NtRp1545
(dp1546
g18
I1
sg19
I0
sg20
I18
sg21
I0
sg22
I0
sg23
I11
sg24
I0
sbssg25
S'|\xb9ZG\xb6\xa3\xf5\x8f\xb1\x03\xf64\xae\xdb\x91\r'
p1547
ssS'_Users_michaelherman_Desktop_django-tastypie-tutorial_env_lib_python2_7_site-packages_django_contrib_auth_middleware'
p1548
(dp1549
g197
(dp1550
g199
S'_Users_michaelherman_Desktop_django-tastypie-tutorial_env_lib_python2_7_site-packages_django_contrib_auth_middleware.html'
p1551
sg201
S'/Users/michaelherman/Desktop/django-tastypie-tutorial/env/lib/python2.7/site-packages/django/contrib/auth/middleware'
p1552
sg203
g13
(g14
g15
NtRp1553
(dp1554
g18
I1
sg19
I0
sg20
I44
sg21
I0
sg22
I0
sg23
I30
sg24
I0
sbssg206
S'\x02\xe0\x95\xd7\xa4D\x86\xe1\xd0e\x1e\xe1J\x1c\x13\xbe'
p1555
ssS'_Users_michaelherman_Desktop_django-tastypie-tutorial_env_lib_python2_7_site-packages_django_contrib_auth_hashers'
p1556
(dp1557
g6
(dp1558
g8
S'_Users_michaelherman_Desktop_django-tastypie-tutorial_env_lib_python2_7_site-packages_django_contrib_auth_hashers.html'
p1559
sg10
S'/Users/michaelherman/Desktop/django-tastypie-tutorial/env/lib/python2.7/site-packages/django/contrib/auth/hashers'
p1560
sg12
g13
(g14
g15
NtRp1561
(dp1562
g18
I1
sg19
I0
sg20
I231
sg21
I0
sg22
I0
sg23
I153
sg24
I0
sbssg25
S'\x99\xbe(\xa9\x93fI\x8c\xd0\xc2&\xa7\x8c\xe4-\xf4'
p1563
ssS'_Users_michaelherman_Desktop_django-tastypie-tutorial_env_lib_python2_7_site-packages_django_contrib_staticfiles_management___init__'
p1564
(dp1565
g6
(dp1566
g8
S'_Users_michaelherman_Desktop_django-tastypie-tutorial_env_lib_python2_7_site-packages_django_contrib_staticfiles_management___init__.html'
p1567
sg10
S'/Users/michaelherman/Desktop/django-tastypie-tutorial/env/lib/python2.7/site-packages/django/contrib/staticfiles/management/__init__'
p1568
sg12
g13
(g14
g15
NtRp1569
(dp1570
g18
I1
sg19
I0
sg20
I0
sg21
I0
sg22
I0
sg23
I0
sg24
I0
sbssg25
S'\xb0\xc8pN\xaf>\xa0\xbaz\x144\xe0A9\xb8?'
p1571
ssS'_Users_michaelherman_Desktop_django-tastypie-tutorial_env_lib_python2_7_site-packages_django_utils_decorators'
p1572
(dp1573
g6
(dp1574
g8
S'_Users_michaelherman_Desktop_django-tastypie-tutorial_env_lib_python2_7_site-packages_django_utils_decorators.html'
p1575
sg10
S'/Users/michaelherman/Desktop/django-tastypie-tutorial/env/lib/python2.7/site-packages/django/utils/decorators'
p1576
sg12
g13
(g14
g15
NtRp1577
(dp1578
g18
I1
sg19
I0
sg20
I59
sg21
I0
sg22
I0
sg23
I33
sg24
I0
sbssg25
S'0\xeb\xd1\xab\xddj\xadk\t;\xa8\x95L\xdd \xc7'
p1579
ssS'_Users_michaelherman_Desktop_django-tastypie-tutorial_env_lib_python2_7_site-packages_django_core_management_commands_test'
p1580
(dp1581
g6
(dp1582
g30
S'_Users_michaelherman_Desktop_django-tastypie-tutorial_env_lib_python2_7_site-packages_django_core_management_commands_test.html'
p1583
sg32
S'/Users/michaelherman/Desktop/django-tastypie-tutorial/env/lib/python2.7/site-packages/django/core/management/commands/test'
p1584
sg34
g13
(g14
g15
NtRp1585
(dp1586
g18
I1
sg19
I0
sg20
I37
sg21
I0
sg22
I0
sg23
I5
sg24
I0
sbssg25
S'\xbf\x7f\xf75F!\xdb\xb2\xb5\xf1V\xa5a\xd1\x86\x8f'
p1587
ssS'_Users_michaelherman_Desktop_django-tastypie-tutorial_env_lib_python2_7_site-packages_django_middleware___init__'
p1588
(dp1589
g6
(dp1590
g8
S'_Users_michaelherman_Desktop_django-tastypie-tutorial_env_lib_python2_7_site-packages_django_middleware___init__.html'
p1591
sg10
S'/Users/michaelherman/Desktop/django-tastypie-tutorial/env/lib/python2.7/site-packages/django/middleware/__init__'
p1592
sg12
g13
(g14
g15
NtRp1593
(dp1594
g18
I1
sg19
I0
sg20
I0
sg21
I0
sg22
I0
sg23
I0
sg24
I0
sbssg25
S'\xb0\xc8pN\xaf>\xa0\xbaz\x144\xe0A9\xb8?'
p1595
ssS'_Users_michaelherman_Desktop_django-tastypie-tutorial_env_lib_python2_7_site-packages_model_mommy_mommy'
p1596
(dp1597
g628
(dp1598
g30
S'_Users_michaelherman_Desktop_django-tastypie-tutorial_env_lib_python2_7_site-packages_model_mommy_mommy.html'
p1599
sg32
S'/Users/michaelherman/Desktop/django-tastypie-tutorial/env/lib/python2.7/site-packages/model_mommy/mommy'
p1600
sg34
g13
(g14
g15
NtRp1601
(dp1602
g18
I1
sg19
I0
sg20
I202
sg21
I0
sg22
I0
sg23
I90
sg24
I0
sbssg634
S'O$\x8bm\x93\x8a\xe2\x9a\x1f\x9d\xb9\xff\x88\xe1\xaaZ'
p1603
ssS'_Users_michaelherman_Desktop_django-tastypie-tutorial_env_lib_python2_7_site-packages_django_contrib_staticfiles___init__'
p1604
(dp1605
g6
(dp1606
g8
S'_Users_michaelherman_Desktop_django-tastypie-tutorial_env_lib_python2_7_site-packages_django_contrib_staticfiles___init__.html'
p1607
sg10
S'/Users/michaelherman/Desktop/django-tastypie-tutorial/env/lib/python2.7/site-packages/django/contrib/staticfiles/__init__'
p1608
sg12
g13
(g14
g15
NtRp1609
(dp1610
g18
I1
sg19
I0
sg20
I0
sg21
I0
sg22
I0
sg23
I0
sg24
I0
sbssg25
S'\xb0\xc8pN\xaf>\xa0\xbaz\x144\xe0A9\xb8?'
p1611
ssS'_Users_michaelherman_Desktop_django-tastypie-tutorial_env_lib_python2_7_site-packages_django_conf___init__'
p1612
(dp1613
g6
(dp1614
g8
S'_Users_michaelherman_Desktop_django-tastypie-tutorial_env_lib_python2_7_site-packages_django_conf___init__.html'
p1615
sg10
S'/Users/michaelherman/Desktop/django-tastypie-tutorial/env/lib/python2.7/site-packages/django/conf/__init__'
p1616
sg12
g13
(g14
g15
NtRp1617
(dp1618
g18
I1
sg19
I0
sg20
I110
sg21
I0
sg22
I0
sg23
I39
sg24
I0
sbssg25
S'\x13!\x1fP\xa7\xb1\r\xf4\xc0\x1b\xf0\x03\xb7&sp'
p1619
ssS'_Users_michaelherman_Desktop_django-tastypie-tutorial_env_lib_python2_7_site-packages_django_core_files_move'
p1620
(dp1621
g6
(dp1622
g8
S'_Users_michaelherman_Desktop_django-tastypie-tutorial_env_lib_python2_7_site-packages_django_core_files_move.html'
p1623
sg10
S'/Users/michaelherman/Desktop/django-tastypie-tutorial/env/lib/python2.7/site-packages/django/core/files/move'
p1624
sg12
g13
(g14
g15
NtRp1625
(dp1626
g18
I1
sg19
I0
sg20
I45
sg21
I0
sg22
I0
sg23
I38
sg24
I0
sbssg25
S'K)w2\x06y\x1c0\xe1\x95\xae\x19(\xb1\xa1\xa3'
p1627
ssS'_Users_michaelherman_Desktop_django-tastypie-tutorial_env_lib_python2_7_site-packages_django_conf_global_settings'
p1628
(dp1629
g6
(dp1630
g8
S'_Users_michaelherman_Desktop_django-tastypie-tutorial_env_lib_python2_7_site-packages_django_conf_global_settings.html'
p1631
sg10
S'/Users/michaelherman/Desktop/django-tastypie-tutorial/env/lib/python2.7/site-packages/django/conf/global_settings'
p1632
sg12
g13
(g14
g15
NtRp1633
(dp1634
g18
I1
sg19
I0
sg20
I119
sg21
I0
sg22
I0
sg23
I0
sg24
I0
sbssg25
S'\x90R*\x84\x1e "-RM~}\xb5\xf0\xb1q'
p1635
ssS'_Users_michaelherman_Desktop_django-tastypie-tutorial_env_lib_python2_7_site-packages_django_contrib_auth_backends'
p1636
(dp1637
g197
(dp1638
g199
S'_Users_michaelherman_Desktop_django-tastypie-tutorial_env_lib_python2_7_site-packages_django_contrib_auth_backends.html'
p1639
sg201
S'/Users/michaelherman/Desktop/django-tastypie-tutorial/env/lib/python2.7/site-packages/django/contrib/auth/backends'
p1640
sg203
g13
(g14
g15
NtRp1641
(dp1642
g18
I1
sg19
I0
sg20
I71
sg21
I0
sg22
I0
sg23
I56
sg24
I0
sbssg206
S'\xd3o>`O~\x18\x0bn\x100F!\xca\x01\xcc'
p1643
ssS'django15_api'
p1644
(dp1645
g197
(dp1646
g199
S'django15_api.html'
p1647
sg201
S'django15/api'
p1648
sg203
g13
(g14
g15
NtRp1649
(dp1650
g18
I1
sg19
I0
sg20
I8
sg21
I0
sg22
I0
sg23
I0
sg24
I0
sbssg206
S'\xcb/\xb1\xac\xac5\x9e\x99H\x9d\x19\xd6\xae\xd7\xad\xda'
p1651
ssS'_Users_michaelherman_Desktop_django-tastypie-tutorial_env_lib_python2_7_site-packages_south_management_commands_test'
p1652
(dp1653
g6
(dp1654
g8
S'_Users_michaelherman_Desktop_django-tastypie-tutorial_env_lib_python2_7_site-packages_south_management_commands_test.html'
p1655
sg10
S'/Users/michaelherman/Desktop/django-tastypie-tutorial/env/lib/python2.7/site-packages/south/management/commands/test'
p1656
sg12
g13
(g14
g15
NtRp1657
(dp1658
g18
I1
sg19
I0
sg20
I6
sg21
I0
sg22
I0
sg23
I0
sg24
I0
sbssg25
S"\x98'+\xf5\x95\xb5zx\xee\xd4\x1f\xc1\xe6\xc8\xb3\xfd"
p1659
ssS'_Users_michaelherman_Desktop_django-tastypie-tutorial_env_lib_python2_7_site-packages_django_contrib_staticfiles_models'
p1660
(dp1661
g6
(dp1662
g8
S'_Users_michaelherman_Desktop_django-tastypie-tutorial_env_lib_python2_7_site-packages_django_contrib_staticfiles_models.html'
p1663
sg10
S'/Users/michaelherman/Desktop/django-tastypie-tutorial/env/lib/python2.7/site-packages/django/contrib/staticfiles/models'
p1664
sg12
g13
(g14
g15
NtRp1665
(dp1666
g18
I1
sg19
I0
sg20
I0
sg21
I0
sg22
I0
sg23
I0
sg24
I0
sbssg25
S'\xb0\xc8pN\xaf>\xa0\xbaz\x144\xe0A9\xb8?'
p1667
ssS'_Users_michaelherman_Desktop_django-tastypie-tutorial_env_lib_python2_7_site-packages_django_forms_models'
p1668
(dp1669
g6
(dp1670
g30
S'_Users_michaelherman_Desktop_django-tastypie-tutorial_env_lib_python2_7_site-packages_django_forms_models.html'
p1671
sg32
S'/Users/michaelherman/Desktop/django-tastypie-tutorial/env/lib/python2.7/site-packages/django/forms/models'
p1672
sg34
g13
(g14
g15
NtRp1673
(dp1674
g18
I1
sg19
I0
sg20
I588
sg21
I0
sg22
I0
sg23
I435
sg24
I0
sbssg25
S'An\x9fh\xc2\xb8\xb8#\xbb\xd0B\xd6\xb9\x88E\xf6'
p1675
ssS'_Users_michaelherman_Desktop_django-tastypie-tutorial_env_lib_python2_7_site-packages_django_utils__os'
p1676
(dp1677
g6
(dp1678
g30
S'_Users_michaelherman_Desktop_django-tastypie-tutorial_env_lib_python2_7_site-packages_django_utils__os.html'
p1679
sg32
S'/Users/michaelherman/Desktop/django-tastypie-tutorial/env/lib/python2.7/site-packages/django/utils/_os'
p1680
sg34
g13
(g14
g15
NtRp1681
(dp1682
g18
I1
sg19
I0
sg20
I43
sg21
I0
sg22
I0
sg23
I22
sg24
I0
sbssg25
S'\x15#\xd1,`\xe9\xe4K\x96\xd6o\x8a\x85\x94\xa3\xcf'
p1683
ssS'_Users_michaelherman_Desktop_django-tastypie-tutorial_env_lib_python2_7_site-packages_django_utils_six'
p1684
(dp1685
g6
(dp1686
g30
S'_Users_michaelherman_Desktop_django-tastypie-tutorial_env_lib_python2_7_site-packages_django_utils_six.html'
p1687
sg32
S'/Users/michaelherman/Desktop/django-tastypie-tutorial/env/lib/python2.7/site-packages/django/utils/six'
p1688
sg34
g13
(g14
g15
NtRp1689
(dp1690
g18
I1
sg19
I0
sg20
I228
sg21
I0
sg22
I0
sg23
I112
sg24
I0
sbssg25
S'\x15hby\x9f\x82D\xb8\x97?\xd5I\xdf^\x00\x91'
p1691
ssS'_Users_michaelherman_Desktop_django-tastypie-tutorial_env_lib_python2_7_site-packages_django_core_management_validation'
p1692
(dp1693
g6
(dp1694
g8
S'_Users_michaelherman_Desktop_django-tastypie-tutorial_env_lib_python2_7_site-packages_django_core_management_validation.html'
p1695
sg10
S'/Users/michaelherman/Desktop/django-tastypie-tutorial/env/lib/python2.7/site-packages/django/core/management/validation'
p1696
sg12
g13
(g14
g15
NtRp1697
(dp1698
g18
I1
sg19
I0
sg20
I246
sg21
I0
sg22
I0
sg23
I121
sg24
I0
sbssg25
S'\x10 \x00\xba~\x0e\xc1Cyc\xf5\xc7V\xddF\xb4'
p1699
ssS'_Users_michaelherman_Desktop_django-tastypie-tutorial_env_lib_python2_7_site-packages_selenium_webdriver_common_html5_application_cache'
p1700
(dp1701
g61
(dp1702
g63
S'_Users_michaelherman_Desktop_django-tastypie-tutorial_env_lib_python2_7_site-packages_selenium_webdriver_common_html5_application_cache.html'
p1703
sg65
S'/Users/michaelherman/Desktop/django-tastypie-tutorial/env/lib/python2.7/site-packages/selenium/webdriver/common/html5/application_cache'
p1704
sg67
g13
(g14
g15
NtRp1705
(dp1706
g18
I1
sg19
I0
sg20
I12
sg21
I0
sg22
I0
sg23
I2
sg24
I0
sbssg70
S'\xd3\xa8T\xa3*.\x8e\x8b\x8b&~\xe2\na\xc3y'
p1707
ssS'_Users_michaelherman_Desktop_django-tastypie-tutorial_env_lib_python2_7_site-packages_django_contrib_sessions_backends_db'
p1708
(dp1709
g6
(dp1710
g30
S'_Users_michaelherman_Desktop_django-tastypie-tutorial_env_lib_python2_7_site-packages_django_contrib_sessions_backends_db.html'
p1711
sg32
S'/Users/michaelherman/Desktop/django-tastypie-tutorial/env/lib/python2.7/site-packages/django/contrib/sessions/backends/db'
p1712
sg34
g13
(g14
g15
NtRp1713
(dp1714
g18
I1
sg19
I0
sg20
I50
sg21
I0
sg22
I0
sg23
I37
sg24
I0
sbssg25
S'\xb3\x8b\xf8\x07@\x04\x80a\xb9\xc60\xedX\x1cw\xc0'
p1715
ssS'_Users_michaelherman_Desktop_django-tastypie-tutorial_env_lib_python2_7_site-packages_django_views_decorators_csrf'
p1716
(dp1717
g6
(dp1718
g30
S'_Users_michaelherman_Desktop_django-tastypie-tutorial_env_lib_python2_7_site-packages_django_views_decorators_csrf.html'
p1719
sg32
S'/Users/michaelherman/Desktop/django-tastypie-tutorial/env/lib/python2.7/site-packages/django/views/decorators/csrf'
p1720
sg34
g13
(g14
g15
NtRp1721
(dp1722
g18
I1
sg19
I0
sg20
I34
sg21
I0
sg22
I0
sg23
I13
sg24
I0
sbssg25
S'>\xb8\xe8V\xd1\x05\x90k\x11S\x11\xbd\xb0\xf0\xcf\xbf'
p1723
ssS'_Users_michaelherman_Desktop_django-tastypie-tutorial_env_lib_python2_7_site-packages_django_contrib_auth___init__'
p1724
(dp1725
g6
(dp1726
g8
S'_Users_michaelherman_Desktop_django-tastypie-tutorial_env_lib_python2_7_site-packages_django_contrib_auth___init__.html'
p1727
sg10
S'/Users/michaelherman/Desktop/django-tastypie-tutorial/env/lib/python2.7/site-packages/django/contrib/auth/__init__'
p1728
sg12
g13
(g14
g15
NtRp1729
(dp1730
g18
I1
sg19
I0
sg20
I89
sg21
I0
sg22
I0
sg23
I67
sg24
I0
sbssg25
S'\xcc\x92\xcb\xdb\xa9A\xbf\x7f\xe2\x11\x82\xdf\x08>@\x9c'
p1731
ssS'_Users_michaelherman_Desktop_django-tastypie-tutorial_env_lib_python2_7_site-packages_tastypie_utils_mime'
p1732
(dp1733
g197
(dp1734
g99
S'_Users_michaelherman_Desktop_django-tastypie-tutorial_env_lib_python2_7_site-packages_tastypie_utils_mime.html'
p1735
sg101
S'/Users/michaelherman/Desktop/django-tastypie-tutorial/env/lib/python2.7/site-packages/tastypie/utils/mime'
p1736
sg103
g13
(g14
g15
NtRp1737
(dp1738
g18
I1
sg19
I0
sg20
I24
sg21
I0
sg22
I0
sg23
I7
sg24
I0
sbssg206
S'\x94\x13q\x90W\x93t\x89\x17\xe9\t?\xda\xf4\x99\xfb'
p1739
ssS'_Users_michaelherman_Desktop_django-tastypie-tutorial_env_lib_python2_7_site-packages_dateutil___init__'
p1740
(dp1741
g197
(dp1742
g199
S'_Users_michaelherman_Desktop_django-tastypie-tutorial_env_lib_python2_7_site-packages_dateutil___init__.html'
p1743
sg201
S'/Users/michaelherman/Desktop/django-tastypie-tutorial/env/lib/python2.7/site-packages/dateutil/__init__'
p1744
sg203
g13
(g14
g15
NtRp1745
(dp1746
g18
I1
sg19
I0
sg20
I4
sg21
I0
sg22
I0
sg23
I0
sg24
I0
sbssg206
S'w\xe4Y\xad\r\xcc\xf4\xdc\xa9\xcb2\xad\xff\xcb\xedh'
p1747
ssS'_Users_michaelherman_Desktop_django-tastypie-tutorial_env_lib_python2_7_site-packages_selenium_webdriver_phantomjs___init__'
p1748
(dp1749
g61
(dp1750
g63
S'_Users_michaelherman_Desktop_django-tastypie-tutorial_env_lib_python2_7_site-packages_selenium_webdriver_phantomjs___init__.html'
p1751
sg65
S'/Users/michaelherman/Desktop/django-tastypie-tutorial/env/lib/python2.7/site-packages/selenium/webdriver/phantomjs/__init__'
p1752
sg67
g13
(g14
g15
NtRp1753
(dp1754
g18
I1
sg19
I0
sg20
I0
sg21
I0
sg22
I0
sg23
I0
sg24
I0
sbssg70
S"0U\xb6\xab'\xdd8F\x8c\x1d\xfe`\xceOH\x06"
p1755
ssS'_Users_michaelherman_Desktop_django-tastypie-tutorial_env_lib_python2_7_site-packages_django_contrib_sites_models'
p1756
(dp1757
g6
(dp1758
g8
S'_Users_michaelherman_Desktop_django-tastypie-tutorial_env_lib_python2_7_site-packages_django_contrib_sites_models.html'
p1759
sg10
S'/Users/michaelherman/Desktop/django-tastypie-tutorial/env/lib/python2.7/site-packages/django/contrib/sites/models'
p1760
sg12
g13
(g14
g15
NtRp1761
(dp1762
g18
I1
sg19
I0
sg20
I58
sg21
I0
sg22
I0
sg23
I28
sg24
I0
sbssg25
S'\x15\x99o\x91D\xf0\xc9\x99\xa92\xa7\n\xbf\xc4)\xac'
p1763
ssS'_Users_michaelherman_Desktop_django-tastypie-tutorial_env_lib_python2_7_site-packages_selenium_webdriver_firefox_webdriver'
p1764
(dp1765
g61
(dp1766
g99
S'_Users_michaelherman_Desktop_django-tastypie-tutorial_env_lib_python2_7_site-packages_selenium_webdriver_firefox_webdriver.html'
p1767
sg101
S'/Users/michaelherman/Desktop/django-tastypie-tutorial/env/lib/python2.7/site-packages/selenium/webdriver/firefox/webdriver'
p1768
sg103
g13
(g14
g15
NtRp1769
(dp1770
g18
I1
sg19
I0
sg20
I47
sg21
I0
sg22
I0
sg23
I14
sg24
I0
sbssg70
S'\xe2 J\x83\xf8\xffV#\xf3\x9c\xc8z\x82\x87\x02\x87'
p1771
ssS'_Users_michaelherman_Desktop_django-tastypie-tutorial_env_lib_python2_7_site-packages_tastypie_constants'
p1772
(dp1773
g197
(dp1774
g199
S'_Users_michaelherman_Desktop_django-tastypie-tutorial_env_lib_python2_7_site-packages_tastypie_constants.html'
p1775
sg201
S'/Users/michaelherman/Desktop/django-tastypie-tutorial/env/lib/python2.7/site-packages/tastypie/constants'
p1776
sg203
g13
(g14
g15
NtRp1777
(dp1778
g18
I1
sg19
I0
sg20
I2
sg21
I0
sg22
I0
sg23
I0
sg24
I0
sbssg206
S'\xf2_\x9f\x1b\xaf]\x16\x04\xec\x92\xec\xd1\x17\x7f\xbf#'
p1779
ssS'_Users_michaelherman_Desktop_django-tastypie-tutorial_env_lib_python2_7_site-packages_django_forms_widgets'
p1780
(dp1781
g6
(dp1782
g30
S'_Users_michaelherman_Desktop_django-tastypie-tutorial_env_lib_python2_7_site-packages_django_forms_widgets.html'
p1783
sg32
S'/Users/michaelherman/Desktop/django-tastypie-tutorial/env/lib/python2.7/site-packages/django/forms/widgets'
p1784
sg34
g13
(g14
g15
NtRp1785
(dp1786
g18
I1
sg19
I0
sg20
I565
sg21
I0
sg22
I0
sg23
I381
sg24
I0
sbssg25
S'\xc2\xe2\x9a#S\xb5\xc0^\n\xdeM%\x8e\x10\x0e\x1a'
p1787
ssS'_Users_michaelherman_Desktop_django-tastypie-tutorial_env_lib_python2_7_site-packages_django_core_servers___init__'
p1788
(dp1789
g6
(dp1790
g8
S'_Users_michaelherman_Desktop_django-tastypie-tutorial_env_lib_python2_7_site-packages_django_core_servers___init__.html'
p1791
sg10
S'/Users/michaelherman/Desktop/django-tastypie-tutorial/env/lib/python2.7/site-packages/django/core/servers/__init__'
p1792
sg12
g13
(g14
g15
NtRp1793
(dp1794
g18
I1
sg19
I0
sg20
I0
sg21
I0
sg22
I0
sg23
I0
sg24
I0
sbssg25
S'\xb0\xc8pN\xaf>\xa0\xbaz\x144\xe0A9\xb8?'
p1795
ssS'_Users_michaelherman_Desktop_django-tastypie-tutorial_env_lib_python2_7_site-packages_django_contrib_auth_models'
p1796
(dp1797
g6
(dp1798
g8
S'_Users_michaelherman_Desktop_django-tastypie-tutorial_env_lib_python2_7_site-packages_django_contrib_auth_models.html'
p1799
sg10
S'/Users/michaelherman/Desktop/django-tastypie-tutorial/env/lib/python2.7/site-packages/django/contrib/auth/models'
p1800
sg12
g13
(g14
g15
NtRp1801
(dp1802
g18
I1
sg19
I0
sg20
I270
sg21
I0
sg22
I0
sg23
I127
sg24
I0
sbssg25
S"'\x8aRFk\x9f~\xd8\x7f\xc6U\xd3\xf8(Dn"
p1803
ssS'_Users_michaelherman_Desktop_django-tastypie-tutorial_env_lib_python2_7_site-packages_south_migration___init__'
p1804
(dp1805
g6
(dp1806
g8
S'_Users_michaelherman_Desktop_django-tastypie-tutorial_env_lib_python2_7_site-packages_south_migration___init__.html'
p1807
sg10
S'/Users/michaelherman/Desktop/django-tastypie-tutorial/env/lib/python2.7/site-packages/south/migration/__init__'
p1808
sg12
g13
(g14
g15
NtRp1809
(dp1810
g18
I1
sg19
I0
sg20
I157
sg21
I0
sg22
I0
sg23
I133
sg24
I0
sbssg25
S'\xcav\xcb\xaa\xb5\x9dp\xa4|\xf5\x9e\xb5\xe8*\x0f\x14'
p1811
ssS'_Users_michaelherman_Desktop_django-tastypie-tutorial_env_lib_python2_7_site-packages_tastypie_authorization'
p1812
(dp1813
g197
(dp1814
g99
S'_Users_michaelherman_Desktop_django-tastypie-tutorial_env_lib_python2_7_site-packages_tastypie_authorization.html'
p1815
sg101
S'/Users/michaelherman/Desktop/django-tastypie-tutorial/env/lib/python2.7/site-packages/tastypie/authorization'
p1816
sg103
g13
(g14
g15
NtRp1817
(dp1818
g18
I1
sg19
I0
sg20
I105
sg21
I0
sg22
I0
sg23
I71
sg24
I0
sbssg206
S'\xa7\xff\xdaPP\xd0;q\xd1\xb4\x87pk\x08\xe7k'
p1819
ssS'_Users_michaelherman_Desktop_django-tastypie-tutorial_env_lib_python2_7_site-packages_django_template_loaders_cached'
p1820
(dp1821
g6
(dp1822
g8
S'_Users_michaelherman_Desktop_django-tastypie-tutorial_env_lib_python2_7_site-packages_django_template_loaders_cached.html'
p1823
sg10
S'/Users/michaelherman/Desktop/django-tastypie-tutorial/env/lib/python2.7/site-packages/django/template/loaders/cached'
p1824
sg12
g13
(g14
g15
NtRp1825
(dp1826
g18
I1
sg19
I0
sg20
I39
sg21
I0
sg22
I0
sg23
I29
sg24
I0
sbssg25
S'\xbd\x94\xffb;\xa88z\x13\xeezM[\x94x\xb4'
p1827
ssS'_Users_michaelherman_Desktop_django-tastypie-tutorial_env_lib_python2_7_site-packages_django_utils_tree'
p1828
(dp1829
g6
(dp1830
g8
S'_Users_michaelherman_Desktop_django-tastypie-tutorial_env_lib_python2_7_site-packages_django_utils_tree.html'
p1831
sg10
S'/Users/michaelherman/Desktop/django-tastypie-tutorial/env/lib/python2.7/site-packages/django/utils/tree'
p1832
sg12
g13
(g14
g15
NtRp1833
(dp1834
g18
I1
sg19
I0
sg20
I64
sg21
I0
sg22
I0
sg23
I18
sg24
I0
sbssg25
S'\x1b\x86X\x113H\x1c\x1f\x1e\xeb:\xa9\xc6\xe9\x10\xb6'
p1835
ssS'_Users_michaelherman_Desktop_django-tastypie-tutorial_env_lib_python2_7_site-packages_south_db_sqlite3'
p1836
(dp1837
g6
(dp1838
g8
S'_Users_michaelherman_Desktop_django-tastypie-tutorial_env_lib_python2_7_site-packages_south_db_sqlite3.html'
p1839
sg10
S'/Users/michaelherman/Desktop/django-tastypie-tutorial/env/lib/python2.7/site-packages/south/db/sqlite3'
p1840
sg12
g13
(g14
g15
NtRp1841
(dp1842
g18
I1
sg19
I0
sg20
I147
sg21
I0
sg22
I0
sg23
I123
sg24
I0
sbssg25
S'\xaf\xf8}\xbd\xba\x1a\xf3\x90&\xea\xa4E\x90D\xdd\x89'
p1843
ssS'_Users_michaelherman_Desktop_django-tastypie-tutorial_env_lib_python2_7_site-packages_django_middleware_csrf'
p1844
(dp1845
g6
(dp1846
g30
S'_Users_michaelherman_Desktop_django-tastypie-tutorial_env_lib_python2_7_site-packages_django_middleware_csrf.html'
p1847
sg32
S'/Users/michaelherman/Desktop/django-tastypie-tutorial/env/lib/python2.7/site-packages/django/middleware/csrf'
p1848
sg34
g13
(g14
g15
NtRp1849
(dp1850
g18
I1
sg19
I0
sg20
I84
sg21
I0
sg22
I0
sg23
I58
sg24
I0
sbssg25
S'\n"Aqu\x1b&L\x03\xdcp`\xca!S\xa0'
p1851
ssS'_Users_michaelherman_Desktop_django-tastypie-tutorial_env_lib_python2_7_site-packages_django_utils_encoding'
p1852
(dp1853
g6
(dp1854
g30
S'_Users_michaelherman_Desktop_django-tastypie-tutorial_env_lib_python2_7_site-packages_django_utils_encoding.html'
p1855
sg32
S'/Users/michaelherman/Desktop/django-tastypie-tutorial/env/lib/python2.7/site-packages/django/utils/encoding'
p1856
sg34
g13
(g14
g15
NtRp1857
(dp1858
g18
I1
sg19
I0
sg20
I104
sg21
I0
sg22
I0
sg23
I38
sg24
I0
sbssg25
S'\x95\x85\x1c>\xcc\r\xd6\xaf\xd6<\xa3\xbb\x02\xa6\xd8>'
p1859
ssS'_Users_michaelherman_Desktop_django-tastypie-tutorial_env_lib_python2_7_site-packages_selenium_webdriver_common_keys'
p1860
(dp1861
g61
(dp1862
g63
S'_Users_michaelherman_Desktop_django-tastypie-tutorial_env_lib_python2_7_site-packages_selenium_webdriver_common_keys.html'
p1863
sg65
S'/Users/michaelherman/Desktop/django-tastypie-tutorial/env/lib/python2.7/site-packages/selenium/webdriver/common/keys'
p1864
sg67
g13
(g14
g15
NtRp1865
(dp1866
g18
I1
sg19
I0
sg20
I65
sg21
I0
sg22
I0
sg23
I0
sg24
I0
sbssg70
S'\x17+K\xcf\xbdh\xea\x9ff\xeb/\x1e\x9f\xcc\xbaU'
p1867
ssS'_Users_michaelherman_Desktop_django-tastypie-tutorial_env_lib_python2_7_site-packages_django_utils_formats'
p1868
(dp1869
g6
(dp1870
g30
S'_Users_michaelherman_Desktop_django-tastypie-tutorial_env_lib_python2_7_site-packages_django_utils_formats.html'
p1871
sg32
S'/Users/michaelherman/Desktop/django-tastypie-tutorial/env/lib/python2.7/site-packages/django/utils/formats'
p1872
sg34
g13
(g14
g15
NtRp1873
(dp1874
g18
I1
sg19
I0
sg20
I115
sg21
I0
sg22
I0
sg23
I54
sg24
I0
sbssg25
S'\xdd\x14\xa4\x03Z\xd8c\xf6Xq\xc9\xb9\xe6\xfb\xef\xf3'
p1875
ssS'_Users_michaelherman_Desktop_django-tastypie-tutorial_env_lib_python2_7_site-packages_django_forms_forms'
p1876
(dp1877
g6
(dp1878
g30
S'_Users_michaelherman_Desktop_django-tastypie-tutorial_env_lib_python2_7_site-packages_django_forms_forms.html'
p1879
sg32
S'/Users/michaelherman/Desktop/django-tastypie-tutorial/env/lib/python2.7/site-packages/django/forms/forms'
p1880
sg34
g13
(g14
g15
NtRp1881
(dp1882
g18
I1
sg19
I0
sg20
I280
sg21
I0
sg22
I0
sg23
I194
sg24
I0
sbssg25
S'&\xe1\x97O\xc80\xa7T\xbdp\xc6\xb6\xc0\xf6\xd8\xaf'
p1883
ssS'_Users_michaelherman_Desktop_django-tastypie-tutorial_env_lib_python2_7_site-packages_django_db_models_fields_related'
p1884
(dp1885
g6
(dp1886
g30
S'_Users_michaelherman_Desktop_django-tastypie-tutorial_env_lib_python2_7_site-packages_django_db_models_fields_related.html'
p1887
sg32
S'/Users/michaelherman/Desktop/django-tastypie-tutorial/env/lib/python2.7/site-packages/django/db/models/fields/related'
p1888
sg34
g13
(g14
g15
NtRp1889
(dp1890
g18
I1
sg19
I0
sg20
I755
sg21
I0
sg22
I0
sg23
I452
sg24
I0
sbssg25
S'\x17i\x84\xd3\x16\x9a]{\x86\xf0\x81}\x8d\xd6\xcc2'
p1891
ssS'_Users_michaelherman_Desktop_django-tastypie-tutorial_env_lib_python2_7_site-packages_django_contrib_messages_constants'
p1892
(dp1893
g6
(dp1894
g8
S'_Users_michaelherman_Desktop_django-tastypie-tutorial_env_lib_python2_7_site-packages_django_contrib_messages_constants.html'
p1895
sg10
S'/Users/michaelherman/Desktop/django-tastypie-tutorial/env/lib/python2.7/site-packages/django/contrib/messages/constants'
p1896
sg12
g13
(g14
g15
NtRp1897
(dp1898
g18
I1
sg19
I0
sg20
I6
sg21
I0
sg22
I0
sg23
I0
sg24
I0
sbssg25
S'\xe2n\xbf/\x11\x9a\xf2\xc6\xa4\x8f~\xd2\x91y\xd4\xda'
p1899
ssS'_Users_michaelherman_Desktop_django-tastypie-tutorial_env_lib_python2_7_site-packages_django_views_decorators_debug'
p1900
(dp1901
g197
(dp1902
g199
S'_Users_michaelherman_Desktop_django-tastypie-tutorial_env_lib_python2_7_site-packages_django_views_decorators_debug.html'
p1903
sg201
S'/Users/michaelherman/Desktop/django-tastypie-tutorial/env/lib/python2.7/site-packages/django/views/decorators/debug'
p1904
sg203
g13
(g14
g15
NtRp1905
(dp1906
g18
I1
sg19
I0
sg20
I19
sg21
I0
sg22
I0
sg23
I12
sg24
I0
sbssg206
S'\x8c\xd5\x86&\xdc\x98]\x15\xfe\xe61\xf6P\xc43Q'
p1907
ssS'_Users_michaelherman_Desktop_django-tastypie-tutorial_env_lib_python2_7_site-packages_django_contrib_messages_api'
p1908
(dp1909
g6
(dp1910
g8
S'_Users_michaelherman_Desktop_django-tastypie-tutorial_env_lib_python2_7_site-packages_django_contrib_messages_api.html'
p1911
sg10
S'/Users/michaelherman/Desktop/django-tastypie-tutorial/env/lib/python2.7/site-packages/django/contrib/messages/api'
p1912
sg12
g13
(g14
g15
NtRp1913
(dp1914
g18
I1
sg19
I0
sg20
I34
sg21
I0
sg22
I0
sg23
I20
sg24
I0
sbssg25
S'i\xb5\x8fk2\x89\xf2JF0\xfa\xd1z\x05\xaf\xe5'
p1915
ssS'_Users_michaelherman_Desktop_django-tastypie-tutorial_env_lib_python2_7_site-packages_django_core_serializers_python'
p1916
(dp1917
g197
(dp1918
g199
S'_Users_michaelherman_Desktop_django-tastypie-tutorial_env_lib_python2_7_site-packages_django_core_serializers_python.html'
p1919
sg201
S'/Users/michaelherman/Desktop/django-tastypie-tutorial/env/lib/python2.7/site-packages/django/core/serializers/python'
p1920
sg203
g13
(g14
g15
NtRp1921
(dp1922
g18
I1
sg19
I0
sg20
I86
sg21
I0
sg22
I0
sg23
I67
sg24
I0
sbssg206
S"\xcf\xb3s\n\xa1\x83\xbc\xc1\xe4W\xfe2'\xb9b\xce"
p1923
ssS'_Users_michaelherman_Desktop_django-tastypie-tutorial_env_lib_python2_7_site-packages_lxml__elementpath'
p1924
(dp1925
g40
(dp1926
g42
S'_Users_michaelherman_Desktop_django-tastypie-tutorial_env_lib_python2_7_site-packages_lxml__elementpath.html'
p1927
sg44
S'/Users/michaelherman/Desktop/django-tastypie-tutorial/env/lib/python2.7/site-packages/lxml/_elementpath'
p1928
sg46
g13
(g14
g15
NtRp1929
(dp1930
g18
I1
sg19
I0
sg20
I182
sg21
I0
sg22
I0
sg23
I166
sg24
I0
sbssg49
S'\xf6\xb6\xb0C9\x84n\xe4(\xc0\x84\xd31\x90\xcc$'
p1931
ssS'_Users_michaelherman_Desktop_django-tastypie-tutorial_env_lib_python2_7_site-packages_django_contrib_auth_signals'
p1932
(dp1933
g6
(dp1934
g8
S'_Users_michaelherman_Desktop_django-tastypie-tutorial_env_lib_python2_7_site-packages_django_contrib_auth_signals.html'
p1935
sg10
S'/Users/michaelherman/Desktop/django-tastypie-tutorial/env/lib/python2.7/site-packages/django/contrib/auth/signals'
p1936
sg12
g13
(g14
g15
NtRp1937
(dp1938
g18
I1
sg19
I0
sg20
I4
sg21
I0
sg22
I0
sg23
I0
sg24
I0
sbssg25
S'juq\x85\xf8\xf6\x92\xd4\xc6;\xc1\x16\xc2\xaa\xe6\xec'
p1939
ssS'_Users_michaelherman_Desktop_django-tastypie-tutorial_env_lib_python2_7_site-packages_selenium_webdriver_remote_remote_connection'
p1940
(dp1941
g61
(dp1942
g99
S'_Users_michaelherman_Desktop_django-tastypie-tutorial_env_lib_python2_7_site-packages_selenium_webdriver_remote_remote_connection.html'
p1943
sg101
S'/Users/michaelherman/Desktop/django-tastypie-tutorial/env/lib/python2.7/site-packages/selenium/webdriver/remote/remote_connection'
p1944
sg103
g13
(g14
g15
NtRp1945
(dp1946
g18
I1
sg19
I0
sg20
I107
sg21
I0
sg22
I0
sg23
I26
sg24
I0
sbssg70
S'\x1f\xb7\xaee\x8d\xa1\xecC\xf7-.\x1dJF+\x0b'
p1947
ssS'_Users_michaelherman_Desktop_django-tastypie-tutorial_env_lib_python2_7_site-packages_django_core_servers_basehttp'
p1948
(dp1949
g6
(dp1950
g8
S'_Users_michaelherman_Desktop_django-tastypie-tutorial_env_lib_python2_7_site-packages_django_core_servers_basehttp.html'
p1951
sg10
S'/Users/michaelherman/Desktop/django-tastypie-tutorial/env/lib/python2.7/site-packages/django/core/servers/basehttp'
p1952
sg12
g13
(g14
g15
NtRp1953
(dp1954
g18
I1
sg19
I0
sg20
I111
sg21
I0
sg22
I0
sg23
I77
sg24
I0
sbssg25
S'\xc8\xefs\xe4\n@3\xd1\x17\x97\x9ae\xc3h\xee<'
p1955
ssS'_Users_michaelherman_Desktop_django-tastypie-tutorial_env_lib_python2_7_site-packages_django_utils_synch'
p1956
(dp1957
g6
(dp1958
g8
S'_Users_michaelherman_Desktop_django-tastypie-tutorial_env_lib_python2_7_site-packages_django_utils_synch.html'
p1959
sg10
S'/Users/michaelherman/Desktop/django-tastypie-tutorial/env/lib/python2.7/site-packages/django/utils/synch'
p1960
sg12
g13
(g14
g15
NtRp1961
(dp1962
g18
I1
sg19
I0
sg20
I59
sg21
I0
sg22
I0
sg23
I41
sg24
I0
sbssg25
S'\xe4\xa3PBK-)\xfe}"\xa7\xb5\x01\x8cz\x8d'
p1963
ssS'_Users_michaelherman_Desktop_django-tastypie-tutorial_env_lib_python2_7_site-packages_selenium_webdriver_firefox_firefox_binary'
p1964
(dp1965
g61
(dp1966
g63
S'_Users_michaelherman_Desktop_django-tastypie-tutorial_env_lib_python2_7_site-packages_selenium_webdriver_firefox_firefox_binary.html'
p1967
sg65
S'/Users/michaelherman/Desktop/django-tastypie-tutorial/env/lib/python2.7/site-packages/selenium/webdriver/firefox/firefox_binary'
p1968
sg67
g13
(g14
g15
NtRp1969
(dp1970
g18
I1
sg19
I0
sg20
I111
sg21
I0
sg22
I0
sg23
I61
sg24
I0
sbssg70
S'\xc0\x04Z\xf5\xb3\x9e\x19\x11\xb1\xf3\xc2!\xab\xee\xc2\x80'
p1971
ssS'_Users_michaelherman_Desktop_django-tastypie-tutorial_env_lib_python2_7_site-packages_django_contrib_staticfiles_utils'
p1972
(dp1973
g6
(dp1974
g8
S'_Users_michaelherman_Desktop_django-tastypie-tutorial_env_lib_python2_7_site-packages_django_contrib_staticfiles_utils.html'
p1975
sg10
S'/Users/michaelherman/Desktop/django-tastypie-tutorial/env/lib/python2.7/site-packages/django/contrib/staticfiles/utils'
p1976
sg12
g13
(g14
g15
NtRp1977
(dp1978
g18
I1
sg19
I0
sg20
I37
sg21
I0
sg22
I0
sg23
I30
sg24
I0
sbssg25
S'Q\x99\xe3\x98\xf4\xbc\tTg\xbc\xed\xbd\\\xf9Q\xdd'
p1979
ssS'_Users_michaelherman_Desktop_django-tastypie-tutorial_env_lib_python2_7_site-packages_django_utils_functional'
p1980
(dp1981
g6
(dp1982
g30
S'_Users_michaelherman_Desktop_django-tastypie-tutorial_env_lib_python2_7_site-packages_django_utils_functional.html'
p1983
sg32
S'/Users/michaelherman/Desktop/django-tastypie-tutorial/env/lib/python2.7/site-packages/django/utils/functional'
p1984
sg34
g13
(g14
g15
NtRp1985
(dp1986
g18
I1
sg19
I0
sg20
I204
sg21
I0
sg22
I0
sg23
I88
sg24
I0
sbssg25
S'\x99\xcd\x7fb\xd3\xf7bu\xe0\xcb\xcc\xa9\x9d\xc6\xab1'
p1987
ssS'django15_urls'
p1988
(dp1989
g197
(dp1990
g199
S'django15_urls.html'
p1991
sg201
S'django15/urls'
p1992
sg203
g13
(g14
g15
NtRp1993
(dp1994
g18
I1
sg19
I0
sg20
I7
sg21
I0
sg22
I0
sg23
I0
sg24
I0
sbssg206
S'\xd8\xbd\xaa\x94L\x94\x02\xe1fDv\xb7\xed!\xd1\xf1'
p1995
ssS'_Users_michaelherman_Desktop_django-tastypie-tutorial_env_lib_python2_7_site-packages_django_utils_html'
p1996
(dp1997
g6
(dp1998
g30
S'_Users_michaelherman_Desktop_django-tastypie-tutorial_env_lib_python2_7_site-packages_django_utils_html.html'
p1999
sg32
S'/Users/michaelherman/Desktop/django-tastypie-tutorial/env/lib/python2.7/site-packages/django/utils/html'
p2000
sg34
g13
(g14
g15
NtRp2001
(dp2002
g18
I1
sg19
I0
sg20
I151
sg21
I0
sg22
I0
sg23
I98
sg24
I0
sbssg25
S'\xd9\xddt\n\xcd|\xfa\x10\xe7<\xdc\x11\xcc\xeb\xc6\xdc'
p2003
ssS'_Users_michaelherman_Desktop_django-tastypie-tutorial_env_lib_python2_7_site-packages_django_http_utils'
p2004
(dp2005
g6
(dp2006
g30
S'_Users_michaelherman_Desktop_django-tastypie-tutorial_env_lib_python2_7_site-packages_django_http_utils.html'
p2007
sg32
S'/Users/michaelherman/Desktop/django-tastypie-tutorial/env/lib/python2.7/site-packages/django/http/utils'
p2008
sg34
g13
(g14
g15
NtRp2009
(dp2010
g18
I1
sg19
I0
sg20
I43
sg21
I0
sg22
I0
sg23
I39
sg24
I0
sbssg25
S'~k\x01\xbaxd2\xab\xa3\xa0\xda0\x07l\x17\x13'
p2011
ssS'_Users_michaelherman_Desktop_django-tastypie-tutorial_env_lib_python2_7_site-packages_django_contrib_admin_options'
p2012
(dp2013
g6
(dp2014
g30
S'_Users_michaelherman_Desktop_django-tastypie-tutorial_env_lib_python2_7_site-packages_django_contrib_admin_options.html'
p2015
sg32
S'/Users/michaelherman/Desktop/django-tastypie-tutorial/env/lib/python2.7/site-packages/django/contrib/admin/options'
p2016
sg34
g13
(g14
g15
NtRp2017
(dp2018
g18
I1
sg19
I0
sg20
I763
sg21
I0
sg22
I0
sg23
I597
sg24
I0
sbssg25
S'\xd0\xe4\x0e\xa8\x91\xde\x99\xb5\x9b\xf03\x91\x8b4\x91\x12'
p2019
ssS'_Users_michaelherman_Desktop_django-tastypie-tutorial_env_lib_python2_7_site-packages_django_utils_dateformat'
p2020
(dp2021
g6
(dp2022
g8
S'_Users_michaelherman_Desktop_django-tastypie-tutorial_env_lib_python2_7_site-packages_django_utils_dateformat.html'
p2023
sg10
S'/Users/michaelherman/Desktop/django-tastypie-tutorial/env/lib/python2.7/site-packages/django/utils/dateformat'
p2024
sg12
g13
(g14
g15
NtRp2025
(dp2026
g18
I1
sg19
I0
sg20
I181
sg21
I0
sg22
I0
sg23
I119
sg24
I0
sbssg25
S'\xb5E)F\x839\xcdaS\xdb\x02\x1e\x8a9\xcf\xb0'
p2027
ssS'_Users_michaelherman_Desktop_django-tastypie-tutorial_env_lib_python2_7_site-packages_django_db_models_fields_proxy'
p2028
(dp2029
g6
(dp2030
g8
S'_Users_michaelherman_Desktop_django-tastypie-tutorial_env_lib_python2_7_site-packages_django_db_models_fields_proxy.html'
p2031
sg10
S'/Users/michaelherman/Desktop/django-tastypie-tutorial/env/lib/python2.7/site-packages/django/db/models/fields/proxy'
p2032
sg12
g13
(g14
g15
NtRp2033
(dp2034
g18
I1
sg19
I0
sg20
I6
sg21
I0
sg22
I0
sg23
I3
sg24
I0
sbssg25
S'\xaf:\xd7\xa5\xadun\x1b\xb7\x141\x81\x80j\x94\xe6'
p2035
ssS'_Users_michaelherman_Desktop_django-tastypie-tutorial_env_lib_python2_7_site-packages_django_db_backends___init__'
p2036
(dp2037
g6
(dp2038
g30
S'_Users_michaelherman_Desktop_django-tastypie-tutorial_env_lib_python2_7_site-packages_django_db_backends___init__.html'
p2039
sg32
S'/Users/michaelherman/Desktop/django-tastypie-tutorial/env/lib/python2.7/site-packages/django/db/backends/__init__'
p2040
sg34
g13
(g14
g15
NtRp2041
(dp2042
g18
I1
sg19
I0
sg20
I451
sg21
I0
sg22
I0
sg23
I170
sg24
I0
sbssg25
S'"\xab.t\xd55\xb4f\x92\x8d\xf1Y\xf4f\xe9\xd6'
p2043
ssS'_Users_michaelherman_Desktop_django-tastypie-tutorial_env_lib_python2_7_site-packages_django_utils_crypto'
p2044
(dp2045
g6
(dp2046
g30
S'_Users_michaelherman_Desktop_django-tastypie-tutorial_env_lib_python2_7_site-packages_django_utils_crypto.html'
p2047
sg32
S'/Users/michaelherman/Desktop/django-tastypie-tutorial/env/lib/python2.7/site-packages/django/utils/crypto'
p2048
sg34
g13
(g14
g15
NtRp2049
(dp2050
g18
I1
sg19
I0
sg20
I78
sg21
I0
sg22
I0
sg23
I53
sg24
I0
sbssg25
S'\xaf9\xd5+vWV\x0b\x06\xb7M\xc1\xd7=\x1f\x86'
p2051
ssS'_Users_michaelherman_Desktop_django-tastypie-tutorial_env_lib_python2_7_site-packages_django_contrib_auth_management___init__'
p2052
(dp2053
g6
(dp2054
g8
S'_Users_michaelherman_Desktop_django-tastypie-tutorial_env_lib_python2_7_site-packages_django_contrib_auth_management___init__.html'
p2055
sg10
S'/Users/michaelherman/Desktop/django-tastypie-tutorial/env/lib/python2.7/site-packages/django/contrib/auth/management/__init__'
p2056
sg12
g13
(g14
g15
NtRp2057
(dp2058
g18
I1
sg19
I0
sg20
I98
sg21
I0
sg22
I0
sg23
I48
sg24
I0
sbssg25
S'\xf4/\x16\xfad\xc73\x12\x18\xa9ZHP\xcdJ\x82'
p2059
ssS'_Users_michaelherman_Desktop_django-tastypie-tutorial_env_lib_python2_7_site-packages_django_db_models_aggregates'
p2060
(dp2061
g6
(dp2062
g8
S'_Users_michaelherman_Desktop_django-tastypie-tutorial_env_lib_python2_7_site-packages_django_db_models_aggregates.html'
p2063
sg10
S'/Users/michaelherman/Desktop/django-tastypie-tutorial/env/lib/python2.7/site-packages/django/db/models/aggregates'
p2064
sg12
g13
(g14
g15
NtRp2065
(dp2066
g18
I1
sg19
I0
sg20
I25
sg21
I0
sg22
I0
sg23
I6
sg24
I0
sbssg25
S'TO\x1e/\xbc\x9c\x17\xc0\xd4\xad\xd9\xae\xc4\\\xa4I'
p2067
ssS'_Users_michaelherman_Desktop_django-tastypie-tutorial_env_lib_python2_7_site-packages_django_template_loader'
p2068
(dp2069
g6
(dp2070
g30
S'_Users_michaelherman_Desktop_django-tastypie-tutorial_env_lib_python2_7_site-packages_django_template_loader.html'
p2071
sg32
S'/Users/michaelherman/Desktop/django-tastypie-tutorial/env/lib/python2.7/site-packages/django/template/loader'
p2072
sg34
g13
(g14
g15
NtRp2073
(dp2074
g18
I1
sg19
I0
sg20
I105
sg21
I0
sg22
I0
sg23
I81
sg24
I0
sbssg25
S'\xce\x9djJ\xd4\xcc#\xf4\xdf\xcf\xc7n{&\x13B'
p2075
ssS'_Users_michaelherman_Desktop_django-tastypie-tutorial_env_lib_python2_7_site-packages_django_contrib_messages_storage___init__'
p2076
(dp2077
g6
(dp2078
g30
S'_Users_michaelherman_Desktop_django-tastypie-tutorial_env_lib_python2_7_site-packages_django_contrib_messages_storage___init__.html'
p2079
sg32
S'/Users/michaelherman/Desktop/django-tastypie-tutorial/env/lib/python2.7/site-packages/django/contrib/messages/storage/__init__'
p2080
sg34
g13
(g14
g15
NtRp2081
(dp2082
g18
I1
sg19
I0
sg20
I18
sg21
I0
sg22
I0
sg23
I13
sg24
I0
sbssg25
S'\x86?\xfd<[\xbe\xa2`A&l%:\xf2[\x82'
p2083
ssS'_Users_michaelherman_Desktop_django-tastypie-tutorial_env_lib_python2_7_site-packages_django_utils_log'
p2084
(dp2085
g6
(dp2086
g8
S'_Users_michaelherman_Desktop_django-tastypie-tutorial_env_lib_python2_7_site-packages_django_utils_log.html'
p2087
sg10
S'/Users/michaelherman/Desktop/django-tastypie-tutorial/env/lib/python2.7/site-packages/django/utils/log'
p2088
sg12
g13
(g14
g15
NtRp2089
(dp2090
g18
I1
sg19
I0
sg20
I57
sg21
I0
sg22
I0
sg23
I33
sg24
I0
sbssg25
S'KL1\xa7\xf6\xb5\x02\t\xb4{\xd8\xd8`\xdd\x9fa'
p2091
ssS'_Users_michaelherman_Desktop_django-tastypie-tutorial_env_lib_python2_7_site-packages_model_mommy_generators'
p2092
(dp2093
g628
(dp2094
g99
S'_Users_michaelherman_Desktop_django-tastypie-tutorial_env_lib_python2_7_site-packages_model_mommy_generators.html'
p2095
sg101
S'/Users/michaelherman/Desktop/django-tastypie-tutorial/env/lib/python2.7/site-packages/model_mommy/generators'
p2096
sg103
g13
(g14
g15
NtRp2097
(dp2098
g18
I1
sg19
I0
sg20
I61
sg21
I0
sg22
I0
sg23
I27
sg24
I0
sbssg634
S'\x9f\xc4\xfd\xb2~[~\x8d\x11\x90\xe7\xaf\x1f\xd3\x08\xd2'
p2099
ssS'_Users_michaelherman_Desktop_django-tastypie-tutorial_env_lib_python2_7_site-packages_django_core_cache_backends___init__'
p2100
(dp2101
g6
(dp2102
g8
S'_Users_michaelherman_Desktop_django-tastypie-tutorial_env_lib_python2_7_site-packages_django_core_cache_backends___init__.html'
p2103
sg10
S'/Users/michaelherman/Desktop/django-tastypie-tutorial/env/lib/python2.7/site-packages/django/core/cache/backends/__init__'
p2104
sg12
g13
(g14
g15
NtRp2105
(dp2106
g18
I1
sg19
I0
sg20
I0
sg21
I0
sg22
I0
sg23
I0
sg24
I0
sbssg25
S'\xb0\xc8pN\xaf>\xa0\xbaz\x144\xe0A9\xb8?'
p2107
ssS'_Users_michaelherman_Desktop_django-tastypie-tutorial_env_lib_python2_7_site-packages_django_utils_datastructures'
p2108
(dp2109
g6
(dp2110
g30
S'_Users_michaelherman_Desktop_django-tastypie-tutorial_env_lib_python2_7_site-packages_django_utils_datastructures.html'
p2111
sg32
S'/Users/michaelherman/Desktop/django-tastypie-tutorial/env/lib/python2.7/site-packages/django/utils/datastructures'
p2112
sg34
g13
(g14
g15
NtRp2113
(dp2114
g18
I1
sg19
I0
sg20
I303
sg21
I0
sg22
I0
sg23
I162
sg24
I0
sbssg25
S'c\xdb\x147!\xf1\x1e&\x81A\xd7e\xd3$b='
p2115
ssS'whatever_tests'
p2116
(dp2117
g6
(dp2118
g99
S'whatever_tests.html'
p2119
sg101
S'whatever/tests'
p2120
sg103
g13
(g14
g15
NtRp2121
(dp2122
g18
I1
sg19
I0
sg20
I57
sg21
I0
sg22
I0
sg23
I4
sg24
I0
sbssg25
S'\xc8\xc9H\x84\xf6e\x92\xb0\xcf\xf25\xbc\x91\xba\xea/'
p2123
ssS'_Users_michaelherman_Desktop_django-tastypie-tutorial_env_lib_python2_7_site-packages_django_utils_unittest_util'
p2124
(dp2125
g6
(dp2126
g8
S'_Users_michaelherman_Desktop_django-tastypie-tutorial_env_lib_python2_7_site-packages_django_utils_unittest_util.html'
p2127
sg10
S'/Users/michaelherman/Desktop/django-tastypie-tutorial/env/lib/python2.7/site-packages/django/utils/unittest/util'
p2128
sg12
g13
(g14
g15
NtRp2129
(dp2130
g18
I1
sg19
I0
sg20
I74
sg21
I0
sg22
I0
sg23
I67
sg24
I0
sbssg25
S'\xb2x_,\x84YY\x16\x91\xcb5(\xe8\x1c<\t'
p2131
ssS'_Users_michaelherman_Desktop_django-tastypie-tutorial_env_lib_python2_7_site-packages_django_contrib_contenttypes_generic'
p2132
(dp2133
g628
(dp2134
g99
S'_Users_michaelherman_Desktop_django-tastypie-tutorial_env_lib_python2_7_site-packages_django_contrib_contenttypes_generic.html'
p2135
sg101
S'/Users/michaelherman/Desktop/django-tastypie-tutorial/env/lib/python2.7/site-packages/django/contrib/contenttypes/generic'
p2136
sg103
g13
(g14
g15
NtRp2137
(dp2138
g18
I1
sg19
I0
sg20
I275
sg21
I0
sg22
I0
sg23
I215
sg24
I0
sbssg634
S'%\x81M<\x0cv\xa7\xf79\xf0S\xfdX\xe6\x0fW'
p2139
ssS'_Users_michaelherman_Desktop_django-tastypie-tutorial_env_lib_python2_7_site-packages_django_utils_ipv6'
p2140
(dp2141
g6
(dp2142
g8
S'_Users_michaelherman_Desktop_django-tastypie-tutorial_env_lib_python2_7_site-packages_django_utils_ipv6.html'
p2143
sg10
S'/Users/michaelherman/Desktop/django-tastypie-tutorial/env/lib/python2.7/site-packages/django/utils/ipv6'
p2144
sg12
g13
(g14
g15
NtRp2145
(dp2146
g18
I1
sg19
I0
sg20
I108
sg21
I0
sg22
I0
sg23
I100
sg24
I0
sbssg25
S'\x19|P\xf8\x82\xf4q<E\xfd\r\xbc\xff\x08.S'
p2147
ssS'_Users_michaelherman_Desktop_django-tastypie-tutorial_env_lib_python2_7_site-packages_django_views___init__'
p2148
(dp2149
g6
(dp2150
g8
S'_Users_michaelherman_Desktop_django-tastypie-tutorial_env_lib_python2_7_site-packages_django_views___init__.html'
p2151
sg10
S'/Users/michaelherman/Desktop/django-tastypie-tutorial/env/lib/python2.7/site-packages/django/views/__init__'
p2152
sg12
g13
(g14
g15
NtRp2153
(dp2154
g18
I1
sg19
I0
sg20
I0
sg21
I0
sg22
I0
sg23
I0
sg24
I0
sbssg25
S'\xb0\xc8pN\xaf>\xa0\xbaz\x144\xe0A9\xb8?'
p2155
ssS'_Users_michaelherman_Desktop_django-tastypie-tutorial_env_lib_python2_7_site-packages_django_contrib_messages_utils'
p2156
(dp2157
g197
(dp2158
g199
S'_Users_michaelherman_Desktop_django-tastypie-tutorial_env_lib_python2_7_site-packages_django_contrib_messages_utils.html'
p2159
sg201
S'/Users/michaelherman/Desktop/django-tastypie-tutorial/env/lib/python2.7/site-packages/django/contrib/messages/utils'
p2160
sg203
g13
(g14
g15
NtRp2161
(dp2162
g18
I1
sg19
I0
sg20
I6
sg21
I0
sg22
I0
sg23
I0
sg24
I0
sbssg206
S'\x8e\xc7\xac\x98\xd8\x97}YJ\xae\xe1\x07\xa0\x03\xca\xd0'
p2163
ssS'_Users_michaelherman_Desktop_django-tastypie-tutorial_env_lib_python2_7_site-packages_django_utils___init__'
p2164
(dp2165
g6
(dp2166
g8
S'_Users_michaelherman_Desktop_django-tastypie-tutorial_env_lib_python2_7_site-packages_django_utils___init__.html'
p2167
sg10
S'/Users/michaelherman/Desktop/django-tastypie-tutorial/env/lib/python2.7/site-packages/django/utils/__init__'
p2168
sg12
g13
(g14
g15
NtRp2169
(dp2170
g18
I1
sg19
I0
sg20
I0
sg21
I0
sg22
I0
sg23
I0
sg24
I0
sbssg25
S'\xb0\xc8pN\xaf>\xa0\xbaz\x144\xe0A9\xb8?'
p2171
ssS'_Users_michaelherman_Desktop_django-tastypie-tutorial_env_lib_python2_7_site-packages_django_core_signing'
p2172
(dp2173
g6
(dp2174
g8
S'_Users_michaelherman_Desktop_django-tastypie-tutorial_env_lib_python2_7_site-packages_django_core_signing.html'
p2175
sg10
S'/Users/michaelherman/Desktop/django-tastypie-tutorial/env/lib/python2.7/site-packages/django/core/signing'
p2176
sg12
g13
(g14
g15
NtRp2177
(dp2178
g18
I1
sg19
I0
sg20
I96
sg21
I0
sg22
I0
sg23
I63
sg24
I0
sbssg25
S'\xae\r\xd7:(\x86\x9e\xacB"3\x9f;@vh'
p2179
ssS'_Users_michaelherman_Desktop_django-tastypie-tutorial_env_lib_python2_7_site-packages_django_contrib_sessions_management___init__'
p2180
(dp2181
g6
(dp2182
g8
S'_Users_michaelherman_Desktop_django-tastypie-tutorial_env_lib_python2_7_site-packages_django_contrib_sessions_management___init__.html'
p2183
sg10
S'/Users/michaelherman/Desktop/django-tastypie-tutorial/env/lib/python2.7/site-packages/django/contrib/sessions/management/__init__'
p2184
sg12
g13
(g14
g15
NtRp2185
(dp2186
g18
I1
sg19
I0
sg20
I0
sg21
I0
sg22
I0
sg23
I0
sg24
I0
sbssg25
S'\xb0\xc8pN\xaf>\xa0\xbaz\x144\xe0A9\xb8?'
p2187
ssS'_Users_michaelherman_Desktop_django-tastypie-tutorial_env_lib_python2_7_site-packages_django_core_validators'
p2188
(dp2189
g6
(dp2190
g30
S'_Users_michaelherman_Desktop_django-tastypie-tutorial_env_lib_python2_7_site-packages_django_core_validators.html'
p2191
sg32
S'/Users/michaelherman/Desktop/django-tastypie-tutorial/env/lib/python2.7/site-packages/django/core/validators'
p2192
sg34
g13
(g14
g15
NtRp2193
(dp2194
g18
I1
sg19
I0
sg20
I120
sg21
I0
sg22
I0
sg23
I51
sg24
I0
sbssg25
S'\xca\xb7=\xe8v\x8cR\xf1\x07\x95\x8f\\:"\xe7\xae'
p2195
ssS'_Users_michaelherman_Desktop_django-tastypie-tutorial_env_lib_python2_7_site-packages_defusedxml___init__'
p2196
(dp2197
g197
(dp2198
g199
S'_Users_michaelherman_Desktop_django-tastypie-tutorial_env_lib_python2_7_site-packages_defusedxml___init__.html'
p2199
sg201
S'/Users/michaelherman/Desktop/django-tastypie-tutorial/env/lib/python2.7/site-packages/defusedxml/__init__'
p2200
sg203
g13
(g14
g15
NtRp2201
(dp2202
g18
I1
sg19
I0
sg20
I20
sg21
I0
sg22
I0
sg23
I15
sg24
I0
sbssg206
S'9\x02\x04\x82\x13r\xfe\x7f\x8fd\xf9\x07l\r\xc1\xaa'
p2203
ssS'_Users_michaelherman_Desktop_django-tastypie-tutorial_env_lib_python2_7_site-packages_django_core_files_uploadhandler'
p2204
(dp2205
g6
(dp2206
g8
S'_Users_michaelherman_Desktop_django-tastypie-tutorial_env_lib_python2_7_site-packages_django_core_files_uploadhandler.html'
p2207
sg10
S'/Users/michaelherman/Desktop/django-tastypie-tutorial/env/lib/python2.7/site-packages/django/core/files/uploadhandler'
p2208
sg12
g13
(g14
g15
NtRp2209
(dp2210
g18
I1
sg19
I0
sg20
I89
sg21
I0
sg22
I0
sg23
I52
sg24
I0
sbssg25
S'\x17o\xc8\xfb\xe9\x8c\xc9:\x13Q0\x86\x02\x91m\xb4'
p2211
ssS'_Users_michaelherman_Desktop_django-tastypie-tutorial_env_lib_python2_7_site-packages_django_db_models_manager'
p2212
(dp2213
g6
(dp2214
g30
S'_Users_michaelherman_Desktop_django-tastypie-tutorial_env_lib_python2_7_site-packages_django_db_models_manager.html'
p2215
sg32
S'/Users/michaelherman/Desktop/django-tastypie-tutorial/env/lib/python2.7/site-packages/django/db/models/manager'
p2216
sg34
g13
(g14
g15
NtRp2217
(dp2218
g18
I1
sg19
I0
sg20
I157
sg21
I0
sg22
I0
sg23
I43
sg24
I0
sbssg25
S'@\x7f\xbf\xd6-J\xd9}\xb0\xd7\x92\xf6a\xdbI\xa9'
p2219
ssS'_Users_michaelherman_Desktop_django-tastypie-tutorial_env_lib_python2_7_site-packages_django_utils_importlib'
p2220
(dp2221
g6
(dp2222
g8
S'_Users_michaelherman_Desktop_django-tastypie-tutorial_env_lib_python2_7_site-packages_django_utils_importlib.html'
p2223
sg10
S'/Users/michaelherman/Desktop/django-tastypie-tutorial/env/lib/python2.7/site-packages/django/utils/importlib'
p2224
sg12
g13
(g14
g15
NtRp2225
(dp2226
g18
I1
sg19
I0
sg20
I23
sg21
I0
sg22
I0
sg23
I6
sg24
I0
sbssg25
S'\x02p\xb8\xc7\x01M\x08\xaf\xc4K>\x95\xf3\xfa9\xc9'
p2227
ssS'_Users_michaelherman_Desktop_django-tastypie-tutorial_env_lib_python2_7_site-packages_selenium_webdriver___init__'
p2228
(dp2229
g61
(dp2230
g63
S'_Users_michaelherman_Desktop_django-tastypie-tutorial_env_lib_python2_7_site-packages_selenium_webdriver___init__.html'
p2231
sg65
S'/Users/michaelherman/Desktop/django-tastypie-tutorial/env/lib/python2.7/site-packages/selenium/webdriver/__init__'
p2232
sg67
g13
(g14
g15
NtRp2233
(dp2234
g18
I1
sg19
I0
sg20
I13
sg21
I0
sg22
I0
sg23
I0
sg24
I0
sbssg70
S'&a6dj\xfeR\xc8\x11\x86n\x9dn\xcb\xb2\xb6'
p2235
ssS'_Users_michaelherman_Desktop_django-tastypie-tutorial_env_lib_python2_7_site-packages_django_dispatch_dispatcher'
p2236
(dp2237
g6
(dp2238
g30
S'_Users_michaelherman_Desktop_django-tastypie-tutorial_env_lib_python2_7_site-packages_django_dispatch_dispatcher.html'
p2239
sg32
S'/Users/michaelherman/Desktop/django-tastypie-tutorial/env/lib/python2.7/site-packages/django/dispatch/dispatcher'
p2240
sg34
g13
(g14
g15
NtRp2241
(dp2242
g18
I1
sg19
I0
sg20
I101
sg21
I0
sg22
I0
sg23
I40
sg24
I0
sbssg25
S'5\x99\x0f2\xd8\xa7g\xa9\xd7\xfc\xbe\x1e\xb2\xcd\x96\xf2'
p2243
ssS'_Users_michaelherman_Desktop_django-tastypie-tutorial_env_lib_python2_7_site-packages_django_core_mail_utils'
p2244
(dp2245
g6
(dp2246
g8
S'_Users_michaelherman_Desktop_django-tastypie-tutorial_env_lib_python2_7_site-packages_django_core_mail_utils.html'
p2247
sg10
S'/Users/michaelherman/Desktop/django-tastypie-tutorial/env/lib/python2.7/site-packages/django/core/mail/utils'
p2248
sg12
g13
(g14
g15
NtRp2249
(dp2250
g18
I1
sg19
I0
sg20
I9
sg21
I0
sg22
I0
sg23
I4
sg24
I0
sbssg25
S'q\x8f\x86\xa8\x10\xa1\x04\x98^\x0e\xe8\x93\xb7X\xaan'
p2251
ssS'_Users_michaelherman_Desktop_django-tastypie-tutorial_env_lib_python2_7_site-packages_django_template_smartif'
p2252
(dp2253
g6
(dp2254
g30
S'_Users_michaelherman_Desktop_django-tastypie-tutorial_env_lib_python2_7_site-packages_django_template_smartif.html'
p2255
sg32
S'/Users/michaelherman/Desktop/django-tastypie-tutorial/env/lib/python2.7/site-packages/django/template/smartif'
p2256
sg34
g13
(g14
g15
NtRp2257
(dp2258
g18
I1
sg19
I0
sg20
I104
sg21
I0
sg22
I0
sg23
I61
sg24
I0
sbssg25
S'hV?\x8e}\x0be\xff@`D\xa5\x9et\x1f\x03'
p2259
ssS'_Users_michaelherman_Desktop_django-tastypie-tutorial_env_lib_python2_7_site-packages_django_contrib_messages_storage_fallback'
p2260
(dp2261
g197
(dp2262
g199
S'_Users_michaelherman_Desktop_django-tastypie-tutorial_env_lib_python2_7_site-packages_django_contrib_messages_storage_fallback.html'
p2263
sg201
S'/Users/michaelherman/Desktop/django-tastypie-tutorial/env/lib/python2.7/site-packages/django/contrib/messages/storage/fallback'
p2264
sg203
g13
(g14
g15
NtRp2265
(dp2266
g18
I1
sg19
I0
sg20
I29
sg21
I0
sg22
I0
sg23
I18
sg24
I0
sbssg206
S"\x86\xf6\x90W\x81\x1c\xf3'\x83\xb7\xa0A{\xf4x\x07"
p2267
ssS'_Users_michaelherman_Desktop_django-tastypie-tutorial_env_lib_python2_7_site-packages_django_contrib_contenttypes_views'
p2268
(dp2269
g6
(dp2270
g8
S'_Users_michaelherman_Desktop_django-tastypie-tutorial_env_lib_python2_7_site-packages_django_contrib_contenttypes_views.html'
p2271
sg10
S'/Users/michaelherman/Desktop/django-tastypie-tutorial/env/lib/python2.7/site-packages/django/contrib/contenttypes/views'
p2272
sg12
g13
(g14
g15
NtRp2273
(dp2274
g18
I1
sg19
I0
sg20
I50
sg21
I0
sg22
I0
sg23
I43
sg24
I0
sbssg25
S'\xd2a\x7f\x1e\x9d\x8e\xe3\xc0\x0b\x0c\x19\xcfXg\xae\x16'
p2275
ssS'_Users_michaelherman_Desktop_django-tastypie-tutorial_env_lib_python2_7_site-packages_django_contrib_admin_models'
p2276
(dp2277
g6
(dp2278
g8
S'_Users_michaelherman_Desktop_django-tastypie-tutorial_env_lib_python2_7_site-packages_django_contrib_admin_models.html'
p2279
sg10
S'/Users/michaelherman/Desktop/django-tastypie-tutorial/env/lib/python2.7/site-packages/django/contrib/admin/models'
p2280
sg12
g13
(g14
g15
NtRp2281
(dp2282
g18
I1
sg19
I0
sg20
I52
sg21
I0
sg22
I0
sg23
I17
sg24
I0
sbssg25
S'\x06\x9fC\x89\xd8 \xd5`\xd8\xdf\x01O\x0c\xdf\x11\xc7'
p2283
ssS'_Users_michaelherman_Desktop_django-tastypie-tutorial_env_lib_python2_7_site-packages_django_db_models_sql_compiler'
p2284
(dp2285
g6
(dp2286
g30
S'_Users_michaelherman_Desktop_django-tastypie-tutorial_env_lib_python2_7_site-packages_django_db_models_sql_compiler.html'
p2287
sg32
S'/Users/michaelherman/Desktop/django-tastypie-tutorial/env/lib/python2.7/site-packages/django/db/models/sql/compiler'
p2288
sg34
g13
(g14
g15
NtRp2289
(dp2290
g18
I1
sg19
I0
sg20
I659
sg21
I0
sg22
I0
sg23
I380
sg24
I0
sbssg25
S'\x14\x8b\xceY\xee\xbc\xb4\x87\xc7P\x11\x05\xa7k\\"'
p2291
ssS'_Users_michaelherman_Desktop_django-tastypie-tutorial_env_lib_python2_7_site-packages_tastypie_compat'
p2292
(dp2293
g197
(dp2294
g199
S'_Users_michaelherman_Desktop_django-tastypie-tutorial_env_lib_python2_7_site-packages_tastypie_compat.html'
p2295
sg201
S'/Users/michaelherman/Desktop/django-tastypie-tutorial/env/lib/python2.7/site-packages/tastypie/compat'
p2296
sg203
g13
(g14
g15
NtRp2297
(dp2298
g18
I1
sg19
I0
sg20
I14
sg21
I0
sg22
I0
sg23
I4
sg24
I0
sbssg206
S'\xa7HM4\xe4_Y*i\x12\xb2}\xb0\xa5\xb1Y'
p2299
ssS'_Users_michaelherman_Desktop_django-tastypie-tutorial_env_lib_python2_7_site-packages_django_core_mail_message'
p2300
(dp2301
g6
(dp2302
g8
S'_Users_michaelherman_Desktop_django-tastypie-tutorial_env_lib_python2_7_site-packages_django_core_mail_message.html'
p2303
sg10
S'/Users/michaelherman/Desktop/django-tastypie-tutorial/env/lib/python2.7/site-packages/django/core/mail/message'
p2304
sg12
g13
(g14
g15
NtRp2305
(dp2306
g18
I1
sg19
I0
sg20
I217
sg21
I0
sg22
I0
sg23
I163
sg24
I0
sbssg25
S'\xd7mL\xc3\xcf\x9bC\xd2\x02P\x19\xf7TF\xc3\xc2'
p2307
ssS'_Users_michaelherman_Desktop_django-tastypie-tutorial_env_lib_python2_7_site-packages_selenium_webdriver_remote_utils'
p2308
(dp2309
g61
(dp2310
g63
S'_Users_michaelherman_Desktop_django-tastypie-tutorial_env_lib_python2_7_site-packages_selenium_webdriver_remote_utils.html'
p2311
sg65
S'/Users/michaelherman/Desktop/django-tastypie-tutorial/env/lib/python2.7/site-packages/selenium/webdriver/remote/utils'
p2312
sg67
g13
(g14
g15
NtRp2313
(dp2314
g18
I1
sg19
I0
sg20
I62
sg21
I0
sg22
I0
sg23
I44
sg24
I0
sbssg70
S'\xe6\x94\x04\xb4\xf2E\xdd\x94\xab|f\x97m\x9a\xa1\x10'
p2315
ssS'_Users_michaelherman_Desktop_django-tastypie-tutorial_env_lib_python2_7_site-packages_django_core_serializers_base'
p2316
(dp2317
g6
(dp2318
g8
S'_Users_michaelherman_Desktop_django-tastypie-tutorial_env_lib_python2_7_site-packages_django_core_serializers_base.html'
p2319
sg10
S'/Users/michaelherman/Desktop/django-tastypie-tutorial/env/lib/python2.7/site-packages/django/core/serializers/base'
p2320
sg12
g13
(g14
g15
NtRp2321
(dp2322
g18
I1
sg19
I0
sg20
I77
sg21
I0
sg22
I0
sg23
I49
sg24
I0
sbssg25
S'\xf0K\xaf\xc1L\xd2\xa3\xa2\xba`\xb7\x95\xd2\xde\x0c\xa4'
p2323
ssS'_Users_michaelherman_Desktop_django-tastypie-tutorial_env_lib_python2_7_site-packages_selenium_webdriver_common_proxy'
p2324
(dp2325
g61
(dp2326
g63
S'_Users_michaelherman_Desktop_django-tastypie-tutorial_env_lib_python2_7_site-packages_selenium_webdriver_common_proxy.html'
p2327
sg65
S'/Users/michaelherman/Desktop/django-tastypie-tutorial/env/lib/python2.7/site-packages/selenium/webdriver/common/proxy'
p2328
sg67
g13
(g14
g15
NtRp2329
(dp2330
g18
I1
sg19
I0
sg20
I96
sg21
I0
sg22
I0
sg23
I60
sg24
I0
sbssg70
S'V\x99\x1e\xb4\x8e\xca\x97\x98\x96\x1b\xdc\xbc\xe4\x15p1'
p2331
ssS'_Users_michaelherman_Desktop_django-tastypie-tutorial_env_lib_python2_7_site-packages_django_contrib_staticfiles_templatetags___init__'
p2332
(dp2333
g6
(dp2334
g8
S'_Users_michaelherman_Desktop_django-tastypie-tutorial_env_lib_python2_7_site-packages_django_contrib_staticfiles_templatetags___init__.html'
p2335
sg10
S'/Users/michaelherman/Desktop/django-tastypie-tutorial/env/lib/python2.7/site-packages/django/contrib/staticfiles/templatetags/__init__'
p2336
sg12
g13
(g14
g15
NtRp2337
(dp2338
g18
I1
sg19
I0
sg20
I0
sg21
I0
sg22
I0
sg23
I0
sg24
I0
sbssg25
S'\xb0\xc8pN\xaf>\xa0\xbaz\x144\xe0A9\xb8?'
p2339
ssS'whatevs_tests'
p2340
(dp2341
S'index'
p2342
(dp2343
g30
S'whatevs_tests.html'
p2344
sg32
S'whatevs/tests'
p2345
sg34
g13
(g14
g15
NtRp2346
(dp2347
g18
I1
sg19
I0
sg20
I11
sg21
I0
sg22
I0
sg23
I0
sg24
I0
sbssS'hash'
p2348
S'\xd8\xabO\x0ba\xbf\x95\xbe\rf\xb9(\xb5\xf7l\xf0'
p2349
ssS'_Users_michaelherman_Desktop_django-tastypie-tutorial_env_lib_python2_7_site-packages_django_db_models_expressions'
p2350
(dp2351
g6
(dp2352
g8
S'_Users_michaelherman_Desktop_django-tastypie-tutorial_env_lib_python2_7_site-packages_django_db_models_expressions.html'
p2353
sg10
S'/Users/michaelherman/Desktop/django-tastypie-tutorial/env/lib/python2.7/site-packages/django/db/models/expressions'
p2354
sg12
g13
(g14
g15
NtRp2355
(dp2356
g18
I1
sg19
I0
sg20
I88
sg21
I0
sg22
I0
sg23
I47
sg24
I0
sbssg25
S'o\x0f\x167\x0fR:\xe4WS\xb0\x80\xa4Yfl'
p2357
ssS'_Users_michaelherman_Desktop_django-tastypie-tutorial_env_lib_python2_7_site-packages_django_db_models_constants'
p2358
(dp2359
g6
(dp2360
g8
S'_Users_michaelherman_Desktop_django-tastypie-tutorial_env_lib_python2_7_site-packages_django_db_models_constants.html'
p2361
sg10
S'/Users/michaelherman/Desktop/django-tastypie-tutorial/env/lib/python2.7/site-packages/django/db/models/constants'
p2362
sg12
g13
(g14
g15
NtRp2363
(dp2364
g18
I1
sg19
I0
sg20
I1
sg21
I0
sg22
I0
sg23
I0
sg24
I0
sbssg25
S'\xef\x06{\x16\xaf\xdf\xe1\xdd\xad\xcc\xcb\xa8A\x84\xe7\xab'
p2365
ssS'_Users_michaelherman_Desktop_django-tastypie-tutorial_env_lib_python2_7_site-packages_tastypie_authentication'
p2366
(dp2367
g197
(dp2368
g99
S'_Users_michaelherman_Desktop_django-tastypie-tutorial_env_lib_python2_7_site-packages_tastypie_authentication.html'
p2369
sg101
S'/Users/michaelherman/Desktop/django-tastypie-tutorial/env/lib/python2.7/site-packages/tastypie/authentication'
p2370
sg103
g13
(g14
g15
NtRp2371
(dp2372
g18
I1
sg19
I0
sg20
I247
sg21
I0
sg22
I0
sg23
I182
sg24
I0
sbssg206
S't\xdf0\x90\xbd\xf0\x10\t$v\xb2!\xee\x0e\xcd\x8c'
p2373
ssS'_Users_michaelherman_Desktop_django-tastypie-tutorial_env_lib_python2_7_site-packages_django_forms_formsets'
p2374
(dp2375
g6
(dp2376
g8
S'_Users_michaelherman_Desktop_django-tastypie-tutorial_env_lib_python2_7_site-packages_django_forms_formsets.html'
p2377
sg10
S'/Users/michaelherman/Desktop/django-tastypie-tutorial/env/lib/python2.7/site-packages/django/forms/formsets'
p2378
sg12
g13
(g14
g15
NtRp2379
(dp2380
g18
I1
sg19
I0
sg20
I212
sg21
I0
sg22
I0
sg23
I155
sg24
I0
sbssg25
S'\x90TV\x92\xb4N\xe1c\xdf0\x97\xc7\xc0\xb1#\xad'
p2381
ssS'_Users_michaelherman_Desktop_django-tastypie-tutorial_env_lib_python2_7_site-packages_django_template_response'
p2382
(dp2383
g6
(dp2384
g8
S'_Users_michaelherman_Desktop_django-tastypie-tutorial_env_lib_python2_7_site-packages_django_template_response.html'
p2385
sg10
S'/Users/michaelherman/Desktop/django-tastypie-tutorial/env/lib/python2.7/site-packages/django/template/response'
p2386
sg12
g13
(g14
g15
NtRp2387
(dp2388
g18
I1
sg19
I0
sg20
I72
sg21
I0
sg22
I0
sg23
I50
sg24
I0
sbssg25
S'W\xe7\xef\x08`\xcco\xe3\x14GL\x9fl,\xde\xdc'
p2389
ssS'_Users_michaelherman_Desktop_django-tastypie-tutorial_env_lib_python2_7_site-packages_django_contrib_admin_helpers'
p2390
(dp2391
g6
(dp2392
g8
S'_Users_michaelherman_Desktop_django-tastypie-tutorial_env_lib_python2_7_site-packages_django_contrib_admin_helpers.html'
p2393
sg10
S'/Users/michaelherman/Desktop/django-tastypie-tutorial/env/lib/python2.7/site-packages/django/contrib/admin/helpers'
p2394
sg12
g13
(g14
g15
NtRp2395
(dp2396
g18
I1
sg19
I0
sg20
I244
sg21
I0
sg22
I0
sg23
I179
sg24
I0
sbssg25
S'\x8b\xae\x9e\xae\x0b\x87\x93M]\x07\x8a\x9cx0\x18\xd2'
p2397
ssS'_Users_michaelherman_Desktop_django-tastypie-tutorial_env_lib_python2_7_site-packages_selenium_webdriver_opera_webdriver'
p2398
(dp2399
g61
(dp2400
g63
S'_Users_michaelherman_Desktop_django-tastypie-tutorial_env_lib_python2_7_site-packages_selenium_webdriver_opera_webdriver.html'
p2401
sg65
S'/Users/michaelherman/Desktop/django-tastypie-tutorial/env/lib/python2.7/site-packages/selenium/webdriver/opera/webdriver'
p2402
sg67
g13
(g14
g15
NtRp2403
(dp2404
g18
I1
sg19
I0
sg20
I27
sg21
I0
sg22
I0
sg23
I14
sg24
I0
sbssg70
S"\xf1a=T'/9\x06\xc3a\x84\x8f\xc58\x8f\x1a"
p2405
ssS'_Users_michaelherman_Desktop_django-tastypie-tutorial_env_lib_python2_7_site-packages_django_template___init__'
p2406
(dp2407
g6
(dp2408
g8
S'_Users_michaelherman_Desktop_django-tastypie-tutorial_env_lib_python2_7_site-packages_django_template___init__.html'
p2409
sg10
S'/Users/michaelherman/Desktop/django-tastypie-tutorial/env/lib/python2.7/site-packages/django/template/__init__'
p2410
sg12
g13
(g14
g15
NtRp2411
(dp2412
g18
I1
sg19
I0
sg20
I6
sg21
I0
sg22
I0
sg23
I0
sg24
I0
sbssg25
S'\xb6\xa0l\x13\xa8q\x87\r\xa8\xea\xdd\x99\xef\xf5k\xd3'
p2413
ssS'_Users_michaelherman_Desktop_django-tastypie-tutorial_env_lib_python2_7_site-packages_django_contrib_contenttypes___init__'
p2414
(dp2415
g6
(dp2416
g8
S'_Users_michaelherman_Desktop_django-tastypie-tutorial_env_lib_python2_7_site-packages_django_contrib_contenttypes___init__.html'
p2417
sg10
S'/Users/michaelherman/Desktop/django-tastypie-tutorial/env/lib/python2.7/site-packages/django/contrib/contenttypes/__init__'
p2418
sg12
g13
(g14
g15
NtRp2419
(dp2420
g18
I1
sg19
I0
sg20
I0
sg21
I0
sg22
I0
sg23
I0
sg24
I0
sbssg25
S'\xb0\xc8pN\xaf>\xa0\xbaz\x144\xe0A9\xb8?'
p2421
ssS'_Users_michaelherman_Desktop_django-tastypie-tutorial_env_lib_python2_7_site-packages_django_contrib_messages___init__'
p2422
(dp2423
g6
(dp2424
g8
S'_Users_michaelherman_Desktop_django-tastypie-tutorial_env_lib_python2_7_site-packages_django_contrib_messages___init__.html'
p2425
sg10
S'/Users/michaelherman/Desktop/django-tastypie-tutorial/env/lib/python2.7/site-packages/django/contrib/messages/__init__'
p2426
sg12
g13
(g14
g15
NtRp2427
(dp2428
g18
I1
sg19
I0
sg20
I3
sg21
I0
sg22
I0
sg23
I0
sg24
I0
sbssg25
S'\x01~\xb7\xc9ZD\xe5N\xc3\x01\xc2\x94u\x0b`\x9e'
p2429
ssS'_Users_michaelherman_Desktop_django-tastypie-tutorial_env_lib_python2_7_site-packages_django_db_models_query'
p2430
(dp2431
g6
(dp2432
g30
S'_Users_michaelherman_Desktop_django-tastypie-tutorial_env_lib_python2_7_site-packages_django_db_models_query.html'
p2433
sg32
S'/Users/michaelherman/Desktop/django-tastypie-tutorial/env/lib/python2.7/site-packages/django/db/models/query'
p2434
sg34
g13
(g14
g15
NtRp2435
(dp2436
g18
I1
sg19
I0
sg20
I974
sg21
I0
sg22
I0
sg23
I649
sg24
I0
sbssg25
S'\x85\xa5\x16_\r\xbd\x1bG/#\xde-z\x1f\x907'
p2437
ssS'_Users_michaelherman_Desktop_django-tastypie-tutorial_env_lib_python2_7_site-packages_django_core_files_locks'
p2438
(dp2439
g6
(dp2440
g8
S'_Users_michaelherman_Desktop_django-tastypie-tutorial_env_lib_python2_7_site-packages_django_core_files_locks.html'
p2441
sg10
S'/Users/michaelherman/Desktop/django-tastypie-tutorial/env/lib/python2.7/site-packages/django/core/files/locks'
p2442
sg12
g13
(g14
g15
NtRp2443
(dp2444
g18
I1
sg19
I0
sg20
I40
sg21
I0
sg22
I0
sg23
I23
sg24
I0
sbssg25
S'\xce}lA\x9d\xae\x8f[oRM\xb4\x9aI[\xf4'
p2445
ssS'_Users_michaelherman_Desktop_django-tastypie-tutorial_env_lib_python2_7_site-packages_django_db_transaction'
p2446
(dp2447
g6
(dp2448
g30
S'_Users_michaelherman_Desktop_django-tastypie-tutorial_env_lib_python2_7_site-packages_django_db_transaction.html'
p2449
sg32
S'/Users/michaelherman/Desktop/django-tastypie-tutorial/env/lib/python2.7/site-packages/django/db/transaction'
p2450
sg34
g13
(g14
g15
NtRp2451
(dp2452
g18
I1
sg19
I0
sg20
I135
sg21
I0
sg22
I0
sg23
I68
sg24
I0
sbssg25
S'\\\xf3\x10\x83d\xd7\x88\x94\xa2\x92?\x1b\xa4\x17\xd9;'
p2453
ssS'_Users_michaelherman_Desktop_django-tastypie-tutorial_env_lib_python2_7_site-packages_django_db_models_fields_files'
p2454
(dp2455
g6
(dp2456
g8
S'_Users_michaelherman_Desktop_django-tastypie-tutorial_env_lib_python2_7_site-packages_django_db_models_fields_files.html'
p2457
sg10
S'/Users/michaelherman/Desktop/django-tastypie-tutorial/env/lib/python2.7/site-packages/django/db/models/fields/files'
p2458
sg12
g13
(g14
g15
NtRp2459
(dp2460
g18
I1
sg19
I0
sg20
I204
sg21
I0
sg22
I0
sg23
I136
sg24
I0
sbssg25
S'\xcf\x942!\xc9\xb4\xaa\x17\x05DT\x9eS\x89\x0fg'
p2461
ssS'_Users_michaelherman_Desktop_django-tastypie-tutorial_env_lib_python2_7_site-packages_selenium_webdriver_common_touch_actions'
p2462
(dp2463
g61
(dp2464
g63
S'_Users_michaelherman_Desktop_django-tastypie-tutorial_env_lib_python2_7_site-packages_selenium_webdriver_common_touch_actions.html'
p2465
sg65
S'/Users/michaelherman/Desktop/django-tastypie-tutorial/env/lib/python2.7/site-packages/selenium/webdriver/common/touch_actions'
p2466
sg67
g13
(g14
g15
NtRp2467
(dp2468
g18
I1
sg19
I0
sg20
I38
sg21
I0
sg22
I0
sg23
I24
sg24
I0
sbssg70
S'\x93\xce\xfdHC\x90\x00\xf7\x12\xdb\xda\xd2\x83\x97\xb2\xd0'
p2469
ssS'_Users_michaelherman_Desktop_django-tastypie-tutorial_env_lib_python2_7_site-packages_south_exceptions'
p2470
(dp2471
g6
(dp2472
g8
S'_Users_michaelherman_Desktop_django-tastypie-tutorial_env_lib_python2_7_site-packages_south_exceptions.html'
p2473
sg10
S'/Users/michaelherman/Desktop/django-tastypie-tutorial/env/lib/python2.7/site-packages/south/exceptions'
p2474
sg12
g13
(g14
g15
NtRp2475
(dp2476
g18
I1
sg19
I0
sg20
I94
sg21
I0
sg22
I0
sg23
I43
sg24
I0
sbssg25
S'\x93\xf8g\t\xac\x04\xdd\xed\xe7\x8d`\xeeP\xaf\xddA'
p2477
ssS'_Users_michaelherman_Desktop_django-tastypie-tutorial_env_lib_python2_7_site-packages_django_forms_util'
p2478
(dp2479
g6
(dp2480
g8
S'_Users_michaelherman_Desktop_django-tastypie-tutorial_env_lib_python2_7_site-packages_django_forms_util.html'
p2481
sg10
S'/Users/michaelherman/Desktop/django-tastypie-tutorial/env/lib/python2.7/site-packages/django/forms/util'
p2482
sg12
g13
(g14
g15
NtRp2483
(dp2484
g18
I1
sg19
I0
sg20
I44
sg21
I0
sg22
I0
sg23
I22
sg24
I0
sbssg25
S'\xb0\xfei\xd9\x80[lQ\xc7\xf5\x88\xf8\x9eDf\xd2'
p2485
ssS'_Users_michaelherman_Desktop_django-tastypie-tutorial_env_lib_python2_7_site-packages_south_logger'
p2486
(dp2487
g6
(dp2488
g8
S'_Users_michaelherman_Desktop_django-tastypie-tutorial_env_lib_python2_7_site-packages_south_logger.html'
p2489
sg10
S'/Users/michaelherman/Desktop/django-tastypie-tutorial/env/lib/python2.7/site-packages/south/logger'
p2490
sg12
g13
(g14
g15
NtRp2491
(dp2492
g18
I1
sg19
I0
sg20
I26
sg21
I0
sg22
I0
sg23
I14
sg24
I0
sbssg25
S'\x82\xa5\x9fF?M\xc63\xa3Y{\xee!hm\xf4'
p2493
ssS'_Users_michaelherman_Desktop_django-tastypie-tutorial_env_lib_python2_7_site-packages_django_contrib_sessions_backends_base'
p2494
(dp2495
g6
(dp2496
g30
S'_Users_michaelherman_Desktop_django-tastypie-tutorial_env_lib_python2_7_site-packages_django_contrib_sessions_backends_base.html'
p2497
sg32
S'/Users/michaelherman/Desktop/django-tastypie-tutorial/env/lib/python2.7/site-packages/django/contrib/sessions/backends/base'
p2498
sg34
g13
(g14
g15
NtRp2499
(dp2500
g18
I1
sg19
I0
sg20
I178
sg21
I0
sg22
I0
sg23
I118
sg24
I0
sbssg25
S'\xcf\xdc)M\xba!\xd1\xb3\x96G+\x1a\xebtP\x86'
p2501
ssS'_Users_michaelherman_Desktop_django-tastypie-tutorial_env_lib_python2_7_site-packages_django_conf_locale_en___init__'
p2502
(dp2503
g6
(dp2504
g8
S'_Users_michaelherman_Desktop_django-tastypie-tutorial_env_lib_python2_7_site-packages_django_conf_locale_en___init__.html'
p2505
sg10
S'/Users/michaelherman/Desktop/django-tastypie-tutorial/env/lib/python2.7/site-packages/django/conf/locale/en/__init__'
p2506
sg12
g13
(g14
g15
NtRp2507
(dp2508
g18
I1
sg19
I0
sg20
I0
sg21
I0
sg22
I0
sg23
I0
sg24
I0
sbssg25
S'\xb0\xc8pN\xaf>\xa0\xbaz\x144\xe0A9\xb8?'
p2509
ssS'_Users_michaelherman_Desktop_django-tastypie-tutorial_env_lib_python2_7_site-packages_selenium_webdriver_ie_webdriver'
p2510
(dp2511
g61
(dp2512
g63
S'_Users_michaelherman_Desktop_django-tastypie-tutorial_env_lib_python2_7_site-packages_selenium_webdriver_ie_webdriver.html'
p2513
sg65
S'/Users/michaelherman/Desktop/django-tastypie-tutorial/env/lib/python2.7/site-packages/selenium/webdriver/ie/webdriver'
p2514
sg67
g13
(g14
g15
NtRp2515
(dp2516
g18
I1
sg19
I0
sg20
I29
sg21
I0
sg22
I0
sg23
I14
sg24
I0
sbssg70
S'\xf8I\xcc*d\xeb\xef\x7f\xeb\x1c&\xabM$\x9b\x17'
p2517
ssS'_Users_michaelherman_Desktop_django-tastypie-tutorial_env_lib_python2_7_site-packages_south_hacks___init__'
p2518
(dp2519
g6
(dp2520
g8
S'_Users_michaelherman_Desktop_django-tastypie-tutorial_env_lib_python2_7_site-packages_south_hacks___init__.html'
p2521
sg10
S'/Users/michaelherman/Desktop/django-tastypie-tutorial/env/lib/python2.7/site-packages/south/hacks/__init__'
p2522
sg12
g13
(g14
g15
NtRp2523
(dp2524
g18
I1
sg19
I0
sg20
I2
sg21
I0
sg22
I0
sg23
I0
sg24
I0
sbssg25
S'\xe8V3k\xb0\xad\xbb\xda\xbeP\x9d]y\xd9\xfcT'
p2525
ssS'_Users_michaelherman_Desktop_django-tastypie-tutorial_env_lib_python2_7_site-packages_south_hacks_django_1_0'
p2526
(dp2527
g6
(dp2528
g8
S'_Users_michaelherman_Desktop_django-tastypie-tutorial_env_lib_python2_7_site-packages_south_hacks_django_1_0.html'
p2529
sg10
S'/Users/michaelherman/Desktop/django-tastypie-tutorial/env/lib/python2.7/site-packages/south/hacks/django_1_0'
p2530
sg12
g13
(g14
g15
NtRp2531
(dp2532
g18
I1
sg19
I0
sg20
I49
sg21
I0
sg22
I0
sg23
I20
sg24
I0
sbssg25
S'\xb7\xb5\x1e\xa8\xea\xd7\x8e+L\xf0;/\x86\x17\xd49'
p2533
ssS'_Users_michaelherman_Desktop_django-tastypie-tutorial_env_lib_python2_7_site-packages_django_db_backends_creation'
p2534
(dp2535
g6
(dp2536
g8
S'_Users_michaelherman_Desktop_django-tastypie-tutorial_env_lib_python2_7_site-packages_django_db_backends_creation.html'
p2537
sg10
S'/Users/michaelherman/Desktop/django-tastypie-tutorial/env/lib/python2.7/site-packages/django/db/backends/creation'
p2538
sg12
g13
(g14
g15
NtRp2539
(dp2540
g18
I1
sg19
I0
sg20
I228
sg21
I0
sg22
I0
sg23
I96
sg24
I0
sbssg25
S'\x02\x82\xa0\x9c+\xa7\x14\xfe\x87\xdf\xaf\x03&\xd1\x89\x88'
p2541
ssS'_Users_michaelherman_Desktop_django-tastypie-tutorial_env_lib_python2_7_site-packages_django_db_models_sql_datastructures'
p2542
(dp2543
g6
(dp2544
g8
S'_Users_michaelherman_Desktop_django-tastypie-tutorial_env_lib_python2_7_site-packages_django_db_models_sql_datastructures.html'
p2545
sg10
S'/Users/michaelherman/Desktop/django-tastypie-tutorial/env/lib/python2.7/site-packages/django/db/models/sql/datastructures'
p2546
sg12
g13
(g14
g15
NtRp2547
(dp2548
g18
I1
sg19
I0
sg20
I23
sg21
I0
sg22
I0
sg23
I11
sg24
I0
sbssg25
S'\x07\xe3\x96|t;\xd3\xca\x8a\x1f]\x94d\xcc\r\xa8'
p2549
ssS'_Users_michaelherman_Desktop_django-tastypie-tutorial_env_lib_python2_7_site-packages_django_db_models_fields___init__'
p2550
(dp2551
g6
(dp2552
g30
S'_Users_michaelherman_Desktop_django-tastypie-tutorial_env_lib_python2_7_site-packages_django_db_models_fields___init__.html'
p2553
sg32
S'/Users/michaelherman/Desktop/django-tastypie-tutorial/env/lib/python2.7/site-packages/django/db/models/fields/__init__'
p2554
sg34
g13
(g14
g15
NtRp2555
(dp2556
g18
I1
sg19
I0
sg20
I794
sg21
I0
sg22
I0
sg23
I387
sg24
I0
sbssg25
S'\xe8\xa8k\x1eX\xbe\xff\xf7q\xb0I_[\xb1\x0eM'
p2557
ssS'_Users_michaelherman_Desktop_django-tastypie-tutorial_env_lib_python2_7_site-packages_django_test___init__'
p2558
(dp2559
g6
(dp2560
g8
S'_Users_michaelherman_Desktop_django-tastypie-tutorial_env_lib_python2_7_site-packages_django_test___init__.html'
p2561
sg10
S'/Users/michaelherman/Desktop/django-tastypie-tutorial/env/lib/python2.7/site-packages/django/test/__init__'
p2562
sg12
g13
(g14
g15
NtRp2563
(dp2564
g18
I1
sg19
I0
sg20
I3
sg21
I0
sg22
I0
sg23
I0
sg24
I0
sbssg25
S"k\xb8'p2\xfc8\xaf8\xa4\xad\xa4\xe9\x8c\x1c\xc3"
p2565
ssS'_Users_michaelherman_Desktop_django-tastypie-tutorial_env_lib_python2_7_site-packages_south_models'
p2566
(dp2567
g6
(dp2568
g8
S'_Users_michaelherman_Desktop_django-tastypie-tutorial_env_lib_python2_7_site-packages_south_models.html'
p2569
sg10
S'/Users/michaelherman/Desktop/django-tastypie-tutorial/env/lib/python2.7/site-packages/south/models'
p2570
sg12
g13
(g14
g15
NtRp2571
(dp2572
g18
I1
sg19
I0
sg20
I21
sg21
I0
sg22
I0
sg23
I11
sg24
I0
sbssg25
S'F\x91S\x80\x8c\xb18\xc4\xcf\xc9$)[@3\x9e'
p2573
ssS'_Users_michaelherman_Desktop_django-tastypie-tutorial_env_lib_python2_7_site-packages_django_contrib_admin_templatetags_admin_static'
p2574
(dp2575
g6
(dp2576
g8
S'_Users_michaelherman_Desktop_django-tastypie-tutorial_env_lib_python2_7_site-packages_django_contrib_admin_templatetags_admin_static.html'
p2577
sg10
S'/Users/michaelherman/Desktop/django-tastypie-tutorial/env/lib/python2.7/site-packages/django/contrib/admin/templatetags/admin_static'
p2578
sg12
g13
(g14
g15
NtRp2579
(dp2580
g18
I1
sg19
I0
sg20
I7
sg21
I0
sg22
I0
sg23
I1
sg24
I0
sbssg25
S'\x99{\xd7\xbc\xa3W\x085\xed$9\xd94r\xea\x15'
p2581
ssS'_Users_michaelherman_Desktop_django-tastypie-tutorial_env_lib_python2_7_site-packages_tastypie_cache'
p2582
(dp2583
g197
(dp2584
g99
S'_Users_michaelherman_Desktop_django-tastypie-tutorial_env_lib_python2_7_site-packages_tastypie_cache.html'
p2585
sg101
S'/Users/michaelherman/Desktop/django-tastypie-tutorial/env/lib/python2.7/site-packages/tastypie/cache'
p2586
sg103
g13
(g14
g15
NtRp2587
(dp2588
g18
I1
sg19
I0
sg20
I34
sg21
I0
sg22
I0
sg23
I16
sg24
I0
sbssg206
S'7\x01U\x9d\xe4\xd1\xe3\x89 \xecGI\xac\xf2Dt'
p2589
ssS'_Users_michaelherman_Desktop_django-tastypie-tutorial_env_lib_python2_7_site-packages_django_contrib_admin_templatetags___init__'
p2590
(dp2591
g6
(dp2592
g8
S'_Users_michaelherman_Desktop_django-tastypie-tutorial_env_lib_python2_7_site-packages_django_contrib_admin_templatetags___init__.html'
p2593
sg10
S'/Users/michaelherman/Desktop/django-tastypie-tutorial/env/lib/python2.7/site-packages/django/contrib/admin/templatetags/__init__'
p2594
sg12
g13
(g14
g15
NtRp2595
(dp2596
g18
I1
sg19
I0
sg20
I0
sg21
I0
sg22
I0
sg23
I0
sg24
I0
sbssg25
S'\xb0\xc8pN\xaf>\xa0\xbaz\x144\xe0A9\xb8?'
p2597
ssS'_Users_michaelherman_Desktop_django-tastypie-tutorial_env_lib_python2_7_site-packages_selenium___init__'
p2598
(dp2599
g61
(dp2600
g63
S'_Users_michaelherman_Desktop_django-tastypie-tutorial_env_lib_python2_7_site-packages_selenium___init__.html'
p2601
sg65
S'/Users/michaelherman/Desktop/django-tastypie-tutorial/env/lib/python2.7/site-packages/selenium/__init__'
p2602
sg67
g13
(g14
g15
NtRp2603
(dp2604
g18
I1
sg19
I0
sg20
I2
sg21
I0
sg22
I0
sg23
I0
sg24
I0
sbssg70
S'\xca\xc2\xddG\xd7o\xeb\xc9\x93]8\xd4"\x01\xa7G'
p2605
ssS'_Users_michaelherman_Desktop_django-tastypie-tutorial_env_lib_python2_7_site-packages_django_contrib_staticfiles_finders'
p2606
(dp2607
g6
(dp2608
g8
S'_Users_michaelherman_Desktop_django-tastypie-tutorial_env_lib_python2_7_site-packages_django_contrib_staticfiles_finders.html'
p2609
sg10
S'/Users/michaelherman/Desktop/django-tastypie-tutorial/env/lib/python2.7/site-packages/django/contrib/staticfiles/finders'
p2610
sg12
g13
(g14
g15
NtRp2611
(dp2612
g18
I1
sg19
I0
sg20
I159
sg21
I0
sg22
I0
sg23
I121
sg24
I0
sbssg25
S'\xa3\xd7I\x8a\tm\x1dh\xb0c\xf4\xe3\xf7hmh'
p2613
ssS'_Users_michaelherman_Desktop_django-tastypie-tutorial_env_lib_python2_7_site-packages_south_management_commands___init__'
p2614
(dp2615
g6
(dp2616
g8
S'_Users_michaelherman_Desktop_django-tastypie-tutorial_env_lib_python2_7_site-packages_south_management_commands___init__.html'
p2617
sg10
S'/Users/michaelherman/Desktop/django-tastypie-tutorial/env/lib/python2.7/site-packages/south/management/commands/__init__'
p2618
sg12
g13
(g14
g15
NtRp2619
(dp2620
g18
I1
sg19
I0
sg20
I18
sg21
I0
sg22
I0
sg23
I1
sg24
I0
sbssg25
S'b&]\x8bu\x13\xcde\x13\xe0\xdc1\xc1\xe6B|'
p2621
ssS'_Users_michaelherman_Desktop_django-tastypie-tutorial_env_lib_python2_7_site-packages_south_signals'
p2622
(dp2623
g6
(dp2624
g8
S'_Users_michaelherman_Desktop_django-tastypie-tutorial_env_lib_python2_7_site-packages_south_signals.html'
p2625
sg10
S'/Users/michaelherman/Desktop/django-tastypie-tutorial/env/lib/python2.7/site-packages/south/signals'
p2626
sg12
g13
(g14
g15
NtRp2627
(dp2628
g18
I1
sg19
I0
sg20
I5
sg21
I0
sg22
I0
sg23
I0
sg24
I0
sbssg25
S']\x7fp!\xd57kP\xa7oZjp4\x8eu'
p2629
ssS'_Users_michaelherman_Desktop_django-tastypie-tutorial_env_lib_python2_7_site-packages_django_test_simple'
p2630
(dp2631
g6
(dp2632
g419
S'_Users_michaelherman_Desktop_django-tastypie-tutorial_env_lib_python2_7_site-packages_django_test_simple.html'
p2633
sg421
S'/Users/michaelherman/Desktop/django-tastypie-tutorial/env/lib/python2.7/site-packages/django/test/simple'
p2634
sg423
g13
(g14
g15
NtRp2635
(dp2636
g18
I1
sg19
I0
sg20
I196
sg21
I0
sg22
I0
sg23
I57
sg24
I0
sbssg25
S'\x0f]:\xf0C\x1eA\x9e9\xd5\x83\x88(\xc5Q\x0e'
p2637
ssS'_Users_michaelherman_Desktop_django-tastypie-tutorial_env_lib_python2_7_site-packages_dateutil_tz'
p2638
(dp2639
g197
(dp2640
g199
S'_Users_michaelherman_Desktop_django-tastypie-tutorial_env_lib_python2_7_site-packages_dateutil_tz.html'
p2641
sg201
S'/Users/michaelherman/Desktop/django-tastypie-tutorial/env/lib/python2.7/site-packages/dateutil/tz'
p2642
sg203
g13
(g14
g15
NtRp2643
(dp2644
g18
I1
sg19
I0
sg20
I581
sg21
I0
sg22
I0
sg23
I479
sg24
I0
sbssg206
S'\xc9q\x13#\xf2\xd3\x193$`\xb9\xd2\xd7S\xcb\xa5'
p2645
ssS'_Users_michaelherman_Desktop_django-tastypie-tutorial_env_lib_python2_7_site-packages_django_template_loaders___init__'
p2646
(dp2647
g6
(dp2648
g8
S'_Users_michaelherman_Desktop_django-tastypie-tutorial_env_lib_python2_7_site-packages_django_template_loaders___init__.html'
p2649
sg10
S'/Users/michaelherman/Desktop/django-tastypie-tutorial/env/lib/python2.7/site-packages/django/template/loaders/__init__'
p2650
sg12
g13
(g14
g15
NtRp2651
(dp2652
g18
I1
sg19
I0
sg20
I0
sg21
I0
sg22
I0
sg23
I0
sg24
I0
sbssg25
S'\xb0\xc8pN\xaf>\xa0\xbaz\x144\xe0A9\xb8?'
p2653
ssS'_Users_michaelherman_Desktop_django-tastypie-tutorial_env_lib_python2_7_site-packages_django_utils_safestring'
p2654
(dp2655
g6
(dp2656
g30
S'_Users_michaelherman_Desktop_django-tastypie-tutorial_env_lib_python2_7_site-packages_django_utils_safestring.html'
p2657
sg32
S'/Users/michaelherman/Desktop/django-tastypie-tutorial/env/lib/python2.7/site-packages/django/utils/safestring'
p2658
sg34
g13
(g14
g15
NtRp2659
(dp2660
g18
I1
sg19
I0
sg20
I62
sg21
I0
sg22
I0
sg23
I33
sg24
I0
sbssg25
S'\x05\xb2n\x03\xfe\x94o\xa8\x0b#\xb7\x11L\xdeoC'
p2661
ssS'_Users_michaelherman_Desktop_django-tastypie-tutorial_env_lib_python2_7_site-packages_django_db_backends_sqlite3___init__'
p2662
(dp2663
g6
(dp2664
g8
S'_Users_michaelherman_Desktop_django-tastypie-tutorial_env_lib_python2_7_site-packages_django_db_backends_sqlite3___init__.html'
p2665
sg10
S'/Users/michaelherman/Desktop/django-tastypie-tutorial/env/lib/python2.7/site-packages/django/db/backends/sqlite3/__init__'
p2666
sg12
g13
(g14
g15
NtRp2667
(dp2668
g18
I1
sg19
I0
sg20
I0
sg21
I0
sg22
I0
sg23
I0
sg24
I0
sbssg25
S'\xb0\xc8pN\xaf>\xa0\xbaz\x144\xe0A9\xb8?'
p2669
ssS'_Users_michaelherman_Desktop_django-tastypie-tutorial_env_lib_python2_7_site-packages_django_contrib_sessions_middleware'
p2670
(dp2671
g197
(dp2672
g199
S'_Users_michaelherman_Desktop_django-tastypie-tutorial_env_lib_python2_7_site-packages_django_contrib_sessions_middleware.html'
p2673
sg201
S'/Users/michaelherman/Desktop/django-tastypie-tutorial/env/lib/python2.7/site-packages/django/contrib/sessions/middleware'
p2674
sg203
g13
(g14
g15
NtRp2675
(dp2676
g18
I1
sg19
I0
sg20
I29
sg21
I0
sg22
I0
sg23
I12
sg24
I0
sbssg206
S'\xe2\xbd\xc4J\x89\xa2\xab\x8b\x17@\xc3o\xff\x99\x11\x02'
p2677
ssS'_Users_michaelherman_Desktop_django-tastypie-tutorial_env_lib_python2_7_site-packages_django_dispatch___init__'
p2678
(dp2679
g6
(dp2680
g8
S'_Users_michaelherman_Desktop_django-tastypie-tutorial_env_lib_python2_7_site-packages_django_dispatch___init__.html'
p2681
sg10
S'/Users/michaelherman/Desktop/django-tastypie-tutorial/env/lib/python2.7/site-packages/django/dispatch/__init__'
p2682
sg12
g13
(g14
g15
NtRp2683
(dp2684
g18
I1
sg19
I0
sg20
I1
sg21
I0
sg22
I0
sg23
I0
sg24
I0
sbssg25
S'\xe9$\xa4\xf3k\xc7$G\xbe^\x9e5~A\x94\xd1'
p2685
ssS'_Users_michaelherman_Desktop_django-tastypie-tutorial_env_lib_python2_7_site-packages_tastypie_paginator'
p2686
(dp2687
g197
(dp2688
g99
S'_Users_michaelherman_Desktop_django-tastypie-tutorial_env_lib_python2_7_site-packages_tastypie_paginator.html'
p2689
sg101
S'/Users/michaelherman/Desktop/django-tastypie-tutorial/env/lib/python2.7/site-packages/tastypie/paginator'
p2690
sg103
g13
(g14
g15
NtRp2691
(dp2692
g18
I1
sg19
I0
sg20
I87
sg21
I0
sg22
I0
sg23
I37
sg24
I0
sbssg206
S'pC\xb3\xc4\xb4V]\xda\x10\xf1,\x99x\x13\xb5\x00'
p2693
ssS'_Users_michaelherman_Desktop_django-tastypie-tutorial_env_lib_python2_7_site-packages_selenium_webdriver_remote_command'
p2694
(dp2695
g61
(dp2696
g63
S'_Users_michaelherman_Desktop_django-tastypie-tutorial_env_lib_python2_7_site-packages_selenium_webdriver_remote_command.html'
p2697
sg65
S'/Users/michaelherman/Desktop/django-tastypie-tutorial/env/lib/python2.7/site-packages/selenium/webdriver/remote/command'
p2698
sg67
g13
(g14
g15
NtRp2699
(dp2700
g18
I1
sg19
I0
sg20
I102
sg21
I0
sg22
I0
sg23
I0
sg24
I0
sbssg70
S'\x08xl8H\xca\x8eP\x12\tw\xbe\x062H\xaf'
p2701
ssS'_Users_michaelherman_Desktop_django-tastypie-tutorial_env_lib_python2_7_site-packages_django_contrib_admin_util'
p2702
(dp2703
g6
(dp2704
g8
S'_Users_michaelherman_Desktop_django-tastypie-tutorial_env_lib_python2_7_site-packages_django_contrib_admin_util.html'
p2705
sg10
S'/Users/michaelherman/Desktop/django-tastypie-tutorial/env/lib/python2.7/site-packages/django/contrib/admin/util'
p2706
sg12
g13
(g14
g15
NtRp2707
(dp2708
g18
I1
sg19
I0
sg20
I275
sg21
I0
sg22
I0
sg23
I231
sg24
I0
sbssg25
S'\xbbq\x9a\nO\x8d\n\xf1>!\xdd\xa5\x949\xd9\xd6'
p2709
ssS'_Users_michaelherman_Desktop_django-tastypie-tutorial_env_lib_python2_7_site-packages_django_core_handlers_base'
p2710
(dp2711
g6
(dp2712
g30
S'_Users_michaelherman_Desktop_django-tastypie-tutorial_env_lib_python2_7_site-packages_django_core_handlers_base.html'
p2713
sg32
S'/Users/michaelherman/Desktop/django-tastypie-tutorial/env/lib/python2.7/site-packages/django/core/handlers/base'
p2714
sg34
g13
(g14
g15
NtRp2715
(dp2716
g18
I1
sg19
I0
sg20
I155
sg21
I0
sg22
I0
sg23
I131
sg24
I0
sbssg25
S'(R\x9e\xf3\xcc\xab\xf7P}.\x08\xae!6H\xc9'
p2717
ssS'_Users_michaelherman_Desktop_django-tastypie-tutorial_env_lib_python2_7_site-packages_django_contrib_sessions___init__'
p2718
(dp2719
g6
(dp2720
g8
S'_Users_michaelherman_Desktop_django-tastypie-tutorial_env_lib_python2_7_site-packages_django_contrib_sessions___init__.html'
p2721
sg10
S'/Users/michaelherman/Desktop/django-tastypie-tutorial/env/lib/python2.7/site-packages/django/contrib/sessions/__init__'
p2722
sg12
g13
(g14
g15
NtRp2723
(dp2724
g18
I1
sg19
I0
sg20
I0
sg21
I0
sg22
I0
sg23
I0
sg24
I0
sbssg25
S'\xb0\xc8pN\xaf>\xa0\xbaz\x144\xe0A9\xb8?'
p2725
ssS'_Users_michaelherman_Desktop_django-tastypie-tutorial_env_lib_python2_7_site-packages_tastypie_utils___init__'
p2726
(dp2727
g197
(dp2728
g199
S'_Users_michaelherman_Desktop_django-tastypie-tutorial_env_lib_python2_7_site-packages_tastypie_utils___init__.html'
p2729
sg201
S'/Users/michaelherman/Desktop/django-tastypie-tutorial/env/lib/python2.7/site-packages/tastypie/utils/__init__'
p2730
sg203
g13
(g14
g15
NtRp2731
(dp2732
g18
I1
sg19
I0
sg20
I5
sg21
I0
sg22
I0
sg23
I0
sg24
I0
sbssg206
S'+\xee\x0eo\x8d\xc3\xbd[\x1awu\x9b\x05\x99\xebB'
p2733
ssS'_Users_michaelherman_Desktop_django-tastypie-tutorial_env_lib_python2_7_site-packages_django_middleware_cache'
p2734
(dp2735
g6
(dp2736
g8
S'_Users_michaelherman_Desktop_django-tastypie-tutorial_env_lib_python2_7_site-packages_django_middleware_cache.html'
p2737
sg10
S'/Users/michaelherman/Desktop/django-tastypie-tutorial/env/lib/python2.7/site-packages/django/middleware/cache'
p2738
sg12
g13
(g14
g15
NtRp2739
(dp2740
g18
I1
sg19
I0
sg20
I91
sg21
I0
sg22
I0
sg23
I78
sg24
I0
sbssg25
S'\x80\xb7\x9e\xfb\x8c?\x8bw\xcc\xa4\x84B\xe9KA5'
p2741
ssS'_Users_michaelherman_Desktop_django-tastypie-tutorial_env_lib_python2_7_site-packages_selenium_webdriver_firefox___init__'
p2742
(dp2743
g61
(dp2744
g63
S'_Users_michaelherman_Desktop_django-tastypie-tutorial_env_lib_python2_7_site-packages_selenium_webdriver_firefox___init__.html'
p2745
sg65
S'/Users/michaelherman/Desktop/django-tastypie-tutorial/env/lib/python2.7/site-packages/selenium/webdriver/firefox/__init__'
p2746
sg67
g13
(g14
g15
NtRp2747
(dp2748
g18
I1
sg19
I0
sg20
I0
sg21
I0
sg22
I0
sg23
I0
sg24
I0
sbssg70
S'j\xe4%\xd6^\xf1W1\xb8\x1c\x8a\x7fj\xa9\x1d\xce'
p2749
ssS'_Users_michaelherman_Desktop_django-tastypie-tutorial_env_lib_python2_7_site-packages_django_utils_dates'
p2750
(dp2751
g6
(dp2752
g8
S'_Users_michaelherman_Desktop_django-tastypie-tutorial_env_lib_python2_7_site-packages_django_utils_dates.html'
p2753
sg10
S'/Users/michaelherman/Desktop/django-tastypie-tutorial/env/lib/python2.7/site-packages/django/utils/dates'
p2754
sg12
g13
(g14
g15
NtRp2755
(dp2756
g18
I1
sg19
I0
sg20
I9
sg21
I0
sg22
I0
sg23
I0
sg24
I0
sbssg25
S'\xed\xe1n\x81\x12\xc1\xc6\x8b\xd8\x98O4:mTA'
p2757
ssS'_Users_michaelherman_Desktop_django-tastypie-tutorial_env_lib_python2_7_site-packages_django_forms___init__'
p2758
(dp2759
g6
(dp2760
g8
S'_Users_michaelherman_Desktop_django-tastypie-tutorial_env_lib_python2_7_site-packages_django_forms___init__.html'
p2761
sg10
S'/Users/michaelherman/Desktop/django-tastypie-tutorial/env/lib/python2.7/site-packages/django/forms/__init__'
p2762
sg12
g13
(g14
g15
NtRp2763
(dp2764
g18
I1
sg19
I0
sg20
I6
sg21
I0
sg22
I0
sg23
I0
sg24
I0
sbssg25
S"\xfb\x98'\xfe<\x95\xf2Q\xfe,\xaeF\t[\xfeP"
p2765
ssS'_Users_michaelherman_Desktop_django-tastypie-tutorial_env_lib_python2_7_site-packages_django_forms_fields'
p2766
(dp2767
g6
(dp2768
g30
S'_Users_michaelherman_Desktop_django-tastypie-tutorial_env_lib_python2_7_site-packages_django_forms_fields.html'
p2769
sg32
S'/Users/michaelherman/Desktop/django-tastypie-tutorial/env/lib/python2.7/site-packages/django/forms/fields'
p2770
sg34
g13
(g14
g15
NtRp2771
(dp2772
g18
I1
sg19
I0
sg20
I588
sg21
I0
sg22
I0
sg23
I381
sg24
I0
sbssg25
S'\xcfaV\x83L\x9a\x16i\xbf\xd27d\xca\x1bf\xfd'
p2773
ssS'_Users_michaelherman_Desktop_django-tastypie-tutorial_env_lib_python2_7_site-packages_django_utils_unittest___init__'
p2774
(dp2775
g6
(dp2776
g8
S'_Users_michaelherman_Desktop_django-tastypie-tutorial_env_lib_python2_7_site-packages_django_utils_unittest___init__.html'
p2777
sg10
S'/Users/michaelherman/Desktop/django-tastypie-tutorial/env/lib/python2.7/site-packages/django/utils/unittest/__init__'
p2778
sg12
g13
(g14
g15
NtRp2779
(dp2780
g18
I1
sg19
I0
sg20
I23
sg21
I0
sg22
I0
sg23
I17
sg24
I0
sbssg25
S'\xccP\x9c\xf4\x9b(\x7f#1\xb9\xe3X7\xb4\xe6B'
p2781
ssS'_Users_michaelherman_Desktop_django-tastypie-tutorial_env_lib_python2_7_site-packages_django_utils_dateparse'
p2782
(dp2783
g6
(dp2784
g30
S'_Users_michaelherman_Desktop_django-tastypie-tutorial_env_lib_python2_7_site-packages_django_utils_dateparse.html'
p2785
sg32
S'/Users/michaelherman/Desktop/django-tastypie-tutorial/env/lib/python2.7/site-packages/django/utils/dateparse'
p2786
sg34
g13
(g14
g15
NtRp2787
(dp2788
g18
I1
sg19
I0
sg20
I38
sg21
I0
sg22
I0
sg23
I27
sg24
I0
sbssg25
S'\xe8\n\xd12\x94@\xf2\x18\xb8\x94;-z\x10\xfbq'
p2789
ssS'_Users_michaelherman_Desktop_django-tastypie-tutorial_env_lib_python2_7_site-packages_django_core_handlers_wsgi'
p2790
(dp2791
g6
(dp2792
g30
S'_Users_michaelherman_Desktop_django-tastypie-tutorial_env_lib_python2_7_site-packages_django_core_handlers_wsgi.html'
p2793
sg32
S'/Users/michaelherman/Desktop/django-tastypie-tutorial/env/lib/python2.7/site-packages/django/core/handlers/wsgi'
p2794
sg34
g13
(g14
g15
NtRp2795
(dp2796
g18
I1
sg19
I0
sg20
I150
sg21
I0
sg22
I0
sg23
I110
sg24
I0
sbssg25
S'7\xe1u\xc4\xf9Z\xf0\xedn\x7f?\x8bx\xe99\x1a'
p2797
ssS'_Users_michaelherman_Desktop_django-tastypie-tutorial_env_lib_python2_7_site-packages_south_management_commands_syncdb'
p2798
(dp2799
g6
(dp2800
g8
S'_Users_michaelherman_Desktop_django-tastypie-tutorial_env_lib_python2_7_site-packages_south_management_commands_syncdb.html'
p2801
sg10
S'/Users/michaelherman/Desktop/django-tastypie-tutorial/env/lib/python2.7/site-packages/south/management/commands/syncdb'
p2802
sg12
g13
(g14
g15
NtRp2803
(dp2804
g18
I1
sg19
I0
sg20
I66
sg21
I0
sg22
I0
sg23
I9
sg24
I0
sbssg25
S'\xb9\x8e\xbb\\\xd4\x8b\xbb*4\xc3\xe1\xd3\x81\x97\xbdT'
p2805
ssS'_Users_michaelherman_Desktop_django-tastypie-tutorial_env_lib_python2_7_site-packages_django_db_utils'
p2806
(dp2807
g6
(dp2808
g30
S'_Users_michaelherman_Desktop_django-tastypie-tutorial_env_lib_python2_7_site-packages_django_db_utils.html'
p2809
sg32
S'/Users/michaelherman/Desktop/django-tastypie-tutorial/env/lib/python2.7/site-packages/django/db/utils'
p2810
sg34
g13
(g14
g15
NtRp2811
(dp2812
g18
I1
sg19
I0
sg20
I119
sg21
I0
sg22
I0
sg23
I54
sg24
I0
sbssg25
S'T+\x86(\x19k\xaf\xady\x82%\xe5(\xca\x90V'
p2813
ssS'_Users_michaelherman_Desktop_django-tastypie-tutorial_env_lib_python2_7_site-packages_django_contrib___init__'
p2814
(dp2815
g6
(dp2816
g8
S'_Users_michaelherman_Desktop_django-tastypie-tutorial_env_lib_python2_7_site-packages_django_contrib___init__.html'
p2817
sg10
S'/Users/michaelherman/Desktop/django-tastypie-tutorial/env/lib/python2.7/site-packages/django/contrib/__init__'
p2818
sg12
g13
(g14
g15
NtRp2819
(dp2820
g18
I1
sg19
I0
sg20
I0
sg21
I0
sg22
I0
sg23
I0
sg24
I0
sbssg25
S'\xb0\xc8pN\xaf>\xa0\xbaz\x144\xe0A9\xb8?'
p2821
ssS'_Users_michaelherman_Desktop_django-tastypie-tutorial_env_lib_python2_7_site-packages_django_template_context'
p2822
(dp2823
g6
(dp2824
g30
S'_Users_michaelherman_Desktop_django-tastypie-tutorial_env_lib_python2_7_site-packages_django_template_context.html'
p2825
sg32
S'/Users/michaelherman/Desktop/django-tastypie-tutorial/env/lib/python2.7/site-packages/django/template/context'
p2826
sg34
g13
(g14
g15
NtRp2827
(dp2828
g18
I1
sg19
I0
sg20
I114
sg21
I0
sg22
I0
sg23
I81
sg24
I0
sbssg25
S'b\xd5\x12\xaf>\xf7\x0f\x87\xf2g\xbc\x9f\xd7\x962\xb1'
p2829
ssS'_Users_michaelherman_Desktop_django-tastypie-tutorial_env_lib_python2_7_site-packages_tastypie_utils_urls'
p2830
(dp2831
g197
(dp2832
g199
S'_Users_michaelherman_Desktop_django-tastypie-tutorial_env_lib_python2_7_site-packages_tastypie_utils_urls.html'
p2833
sg201
S'/Users/michaelherman/Desktop/django-tastypie-tutorial/env/lib/python2.7/site-packages/tastypie/utils/urls'
p2834
sg203
g13
(g14
g15
NtRp2835
(dp2836
g18
I1
sg19
I0
sg20
I5
sg21
I0
sg22
I0
sg23
I1
sg24
I0
sbssg206
S'\x88oWQw2t\x14\t\xe1\xddnS+\x14\x1b'
p2837
ssS'django15___init__'
p2838
(dp2839
g6
(dp2840
g8
S'django15___init__.html'
p2841
sg10
S'django15/__init__'
p2842
sg12
g13
(g14
g15
NtRp2843
(dp2844
g18
I1
sg19
I0
sg20
I0
sg21
I0
sg22
I0
sg23
I0
sg24
I0
sbssg25
S'\xb0\xc8pN\xaf>\xa0\xbaz\x144\xe0A9\xb8?'
p2845
ssS'_Users_michaelherman_Desktop_django-tastypie-tutorial_env_lib_python2_7_site-packages_south_orm'
p2846
(dp2847
g6
(dp2848
g8
S'_Users_michaelherman_Desktop_django-tastypie-tutorial_env_lib_python2_7_site-packages_south_orm.html'
p2849
sg10
S'/Users/michaelherman/Desktop/django-tastypie-tutorial/env/lib/python2.7/site-packages/south/orm'
p2850
sg12
g13
(g14
g15
NtRp2851
(dp2852
g18
I1
sg19
I0
sg20
I212
sg21
I0
sg22
I0
sg23
I179
sg24
I0
sbssg25
S'QC\xbeIi\xb2\xdb\xe3\x1d\xd4\xbcOy\xbc\xc3A'
p2853
ssS'_Users_michaelherman_Desktop_django-tastypie-tutorial_env_lib_python2_7_site-packages_django_contrib_staticfiles_storage'
p2854
(dp2855
g6
(dp2856
g8
S'_Users_michaelherman_Desktop_django-tastypie-tutorial_env_lib_python2_7_site-packages_django_contrib_staticfiles_storage.html'
p2857
sg10
S'/Users/michaelherman/Desktop/django-tastypie-tutorial/env/lib/python2.7/site-packages/django/contrib/staticfiles/storage'
p2858
sg12
g13
(g14
g15
NtRp2859
(dp2860
g18
I1
sg19
I0
sg20
I181
sg21
I0
sg22
I0
sg23
I138
sg24
I0
sbssg25
S',\x8e$3\xcf\xe2{\xf50x\xd0\xa6\x1e\x8aI\x04'
p2861
ssS'_Users_michaelherman_Desktop_django-tastypie-tutorial_env_lib_python2_7_site-packages_defusedxml_lxml'
p2862
(dp2863
g197
(dp2864
g99
S'_Users_michaelherman_Desktop_django-tastypie-tutorial_env_lib_python2_7_site-packages_defusedxml_lxml.html'
p2865
sg101
S'/Users/michaelherman/Desktop/django-tastypie-tutorial/env/lib/python2.7/site-packages/defusedxml/lxml'
p2866
sg103
g13
(g14
g15
NtRp2867
(dp2868
g18
I1
sg19
I0
sg20
I87
sg21
I0
sg22
I0
sg23
I32
sg24
I0
sbssg206
S'\xe4]zD\xc6\x17Q`\xfb\xf3SH/\x1f}\x1e'
p2869
ssS'_Users_michaelherman_Desktop_django-tastypie-tutorial_env_lib_python2_7_site-packages_django_core_files_temp'
p2870
(dp2871
g6
(dp2872
g8
S'_Users_michaelherman_Desktop_django-tastypie-tutorial_env_lib_python2_7_site-packages_django_core_files_temp.html'
p2873
sg10
S'/Users/michaelherman/Desktop/django-tastypie-tutorial/env/lib/python2.7/site-packages/django/core/files/temp'
p2874
sg12
g13
(g14
g15
NtRp2875
(dp2876
g18
I1
sg19
I0
sg20
I28
sg21
I0
sg22
I0
sg23
I21
sg24
I0
sbssg25
S'\x14%Z\x18\x8e\x18K\xa3Y\x1f\xa7\x988\xdc)X'
p2877
ssS'_Users_michaelherman_Desktop_django-tastypie-tutorial_env_lib_python2_7_site-packages_django_template_debug'
p2878
(dp2879
g197
(dp2880
g199
S'_Users_michaelherman_Desktop_django-tastypie-tutorial_env_lib_python2_7_site-packages_django_template_debug.html'
p2881
sg201
S'/Users/michaelherman/Desktop/django-tastypie-tutorial/env/lib/python2.7/site-packages/django/template/debug'
p2882
sg203
g13
(g14
g15
NtRp2883
(dp2884
g18
I1
sg19
I0
sg20
I78
sg21
I0
sg22
I0
sg23
I20
sg24
I0
sbssg206
S'\x82<\x8cy\x9d\x1a\x8c(\x9eX%\n\x0b\xfc\x0c\xe7'
p2885
ssS'_Users_michaelherman_Desktop_django-tastypie-tutorial_env_lib_python2_7_site-packages_django_db_models_sql_subqueries'
p2886
(dp2887
g6
(dp2888
g8
S'_Users_michaelherman_Desktop_django-tastypie-tutorial_env_lib_python2_7_site-packages_django_db_models_sql_subqueries.html'
p2889
sg10
S'/Users/michaelherman/Desktop/django-tastypie-tutorial/env/lib/python2.7/site-packages/django/db/models/sql/subqueries'
p2890
sg12
g13
(g14
g15
NtRp2891
(dp2892
g18
I1
sg19
I0
sg20
I136
sg21
I0
sg22
I0
sg23
I87
sg24
I0
sbssg25
S'_\x89=S\x89\x1do\xb387\x11<8\x83&\xba'
p2893
ssS'_Users_michaelherman_Desktop_django-tastypie-tutorial_env_lib_python2_7_site-packages_django_test_signals'
p2894
(dp2895
g6
(dp2896
g8
S'_Users_michaelherman_Desktop_django-tastypie-tutorial_env_lib_python2_7_site-packages_django_test_signals.html'
p2897
sg10
S'/Users/michaelherman/Desktop/django-tastypie-tutorial/env/lib/python2.7/site-packages/django/test/signals'
p2898
sg12
g13
(g14
g15
NtRp2899
(dp2900
g18
I1
sg19
I0
sg20
I50
sg21
I0
sg22
I0
sg23
I35
sg24
I0
sbssg25
S'\xd2\xaet\x89\x93\xe1\xca\xecB\x94{\xfd$Boz'
p2901
ssS'_Users_michaelherman_Desktop_django-tastypie-tutorial_env_lib_python2_7_site-packages_south_management___init__'
p2902
(dp2903
g6
(dp2904
g8
S'_Users_michaelherman_Desktop_django-tastypie-tutorial_env_lib_python2_7_site-packages_south_management___init__.html'
p2905
sg10
S'/Users/michaelherman/Desktop/django-tastypie-tutorial/env/lib/python2.7/site-packages/south/management/__init__'
p2906
sg12
g13
(g14
g15
NtRp2907
(dp2908
g18
I1
sg19
I0
sg20
I0
sg21
I0
sg22
I0
sg23
I0
sg24
I0
sbssg25
S'\xb0\xc8pN\xaf>\xa0\xbaz\x144\xe0A9\xb8?'
p2909
ssS'_Users_michaelherman_Desktop_django-tastypie-tutorial_env_lib_python2_7_site-packages_django_db_backends_sqlite3_base'
p2910
(dp2911
g6
(dp2912
g30
S'_Users_michaelherman_Desktop_django-tastypie-tutorial_env_lib_python2_7_site-packages_django_db_backends_sqlite3_base.html'
p2913
sg32
S'/Users/michaelherman/Desktop/django-tastypie-tutorial/env/lib/python2.7/site-packages/django/db/backends/sqlite3/base'
p2914
sg34
g13
(g14
g15
NtRp2915
(dp2916
g18
I1
sg19
I0
sg20
I233
sg21
I0
sg22
I0
sg23
I109
sg24
I0
sbssg25
S"\x86\x16\xd4\xd9U\xf6'\xa6\x9fg\x88\xa5\x7f\x0e\xed\x17"
p2917
ssS'_Users_michaelherman_Desktop_django-tastypie-tutorial_env_lib_python2_7_site-packages_dateutil_relativedelta'
p2918
(dp2919
g197
(dp2920
g199
S'_Users_michaelherman_Desktop_django-tastypie-tutorial_env_lib_python2_7_site-packages_dateutil_relativedelta.html'
p2921
sg201
S'/Users/michaelherman/Desktop/django-tastypie-tutorial/env/lib/python2.7/site-packages/dateutil/relativedelta'
p2922
sg203
g13
(g14
g15
NtRp2923
(dp2924
g18
I1
sg19
I0
sg20
I223
sg21
I0
sg22
I0
sg23
I192
sg24
I0
sbssg206
S'\xac\x89\x99\x85J,\xc3\xd5\x9d\x9d6\xf1\xedJ~\xf9'
p2925
ssS'_Users_michaelherman_Desktop_django-tastypie-tutorial_env_lib_python2_7_site-packages_selenium_webdriver_remote_errorhandler'
p2926
(dp2927
g61
(dp2928
g99
S'_Users_michaelherman_Desktop_django-tastypie-tutorial_env_lib_python2_7_site-packages_selenium_webdriver_remote_errorhandler.html'
p2929
sg101
S'/Users/michaelherman/Desktop/django-tastypie-tutorial/env/lib/python2.7/site-packages/selenium/webdriver/remote/errorhandler'
p2930
sg103
g13
(g14
g15
NtRp2931
(dp2932
g18
I1
sg19
I0
sg20
I121
sg21
I0
sg22
I0
sg23
I43
sg24
I0
sbssg70
S'Jw\x9eM\x1a)\xb2\xb3V\xfa?)\xe4\x98XZ'
p2933
sssS'version'
p2934
S'3.6'
p2935
sS'settings'
p2936
S'3\xcf\xa1\x19.\x88o$\x8cA\xde\xbd\xcd\x06\xa1\x0f'
p2937
sS'format'
p2938
I1
s.